
core:     file format elf32-i386
core
architecture: i386, flags 0x00000112:
EXEC_P, HAS_SYMS, D_PAGED
start address 0xc0002740

Program Header:
    LOAD off    0x00001000 vaddr 0xc0000000 paddr 0xc0000000 align 2**12
         filesz 0x00007000 memsz 0x00007000 flags r-x
    LOAD off    0x00008000 vaddr 0xc0007000 paddr 0xc0007000 align 2**12
         filesz 0x00001000 memsz 0x00216160 flags rw-
   STACK off    0x00000000 vaddr 0x00000000 paddr 0x00000000 align 2**2
         filesz 0x00000000 memsz 0x00000000 flags rwx

Sections:
Idx Name          Size      VMA       LMA       File off  Algn
  0 .boot         00001000  c0000000  c0000000  00001000  2**0
                  CONTENTS, ALLOC, LOAD, READONLY, DATA
  1 .text         00006000  c0001000  c0001000  00002000  2**4
                  CONTENTS, ALLOC, LOAD, READONLY, CODE
  2 .data         00001000  c0007000  c0007000  00008000  2**5
                  CONTENTS, ALLOC, LOAD, DATA
  3 .bss          00215160  c0008000  c0008000  00009000  2**5
                  ALLOC
  4 .comment      00000023  00000000  00000000  00009000  2**0
                  CONTENTS, READONLY
SYMBOL TABLE:
c0000000 l    d  .boot	00000000 .boot
c0001000 l    d  .text	00000000 .text
c0007000 l    d  .data	00000000 .data
c0008000 l    d  .bss	00000000 .bss
00000000 l    d  .comment	00000000 .comment
00000000 l    df *ABS*	00000000 boot.asm
c0debabe l       *ABS*	00000000 CORE_MAGIC
00000000 l    df *ABS*	00000000 init.c
00000000 l    df *ABS*	00000000 asm.asm
c0001000 l       .text	00000000 mutex
c0001028 l       .text	00000000 DetectAPIC.testAPIC
c000103b l       .text	00000000 DetectAPIC.err
c0001063 l       .text	00000000 getVendor.intel
c000106c l       .text	00000000 getVendor.amdTest
c0001094 l       .text	00000000 msg
00000000 l    df *ABS*	00000000 io.asm
c0001191 l       .text	00000000 mutexEnter.spin
00000000 l    df *ABS*	00000000 irq.asm
c00012c0 l       .text	00000000 irqStub
00000000 l    df *ABS*	00000000 isr.asm
c00013db l       .text	00000000 commonStub
00000000 l    df *ABS*	00000000 lgdt.asm
c000143f l       .text	00000000 lgdt.flush
00000000 l    df *ABS*	00000000 APIC.c
00000000 l    df *ABS*	00000000 GDT.c
00000000 l    df *ABS*	00000000 IDT.c
00000000 l    df *ABS*	00000000 irq.c
00000000 l    df *ABS*	00000000 isr.c
00000000 l    df *ABS*	00000000 PIC.c
00000000 l    df *ABS*	00000000 heap.c
00000000 l    df *ABS*	00000000 paging.c
00000000 l    df *ABS*	00000000 graphics.c
00000000 l    df *ABS*	00000000 text.c
00000000 l    df *ABS*	00000000 VGA.c
c000781d l     O .data	00000007 hor_regs
c0007824 l     O .data	00000007 width_256
c000782b l     O .data	00000007 width_320
c0007832 l     O .data	00000007 width_360
c0007839 l     O .data	00000007 width_376
c0007840 l     O .data	00000007 width_400
c0007847 l     O .data	00000008 ver_regs
c000784f l     O .data	00000008 height_200
c0007857 l     O .data	00000008 height_224
c000785f l     O .data	00000008 height_240
c0007867 l     O .data	00000008 height_256
c000786f l     O .data	00000008 height_270
c0007877 l     O .data	00000008 height_300
c000787f l     O .data	00000008 height_360
c0007887 l     O .data	00000008 height_400
c000788f l     O .data	00000008 height_480
c0007897 l     O .data	00000008 height_564
c000789f l     O .data	00000008 height_600
00000000 l    df *ABS*	00000000 elf.c
00000000 l    df *ABS*	00000000 exec.c
00000000 l    df *ABS*	00000000 timer.c
00000000 l    df *ABS*	00000000 math.c
00000000 l    df *ABS*	00000000 alloc.c
00000000 l    df *ABS*	00000000 heap.c
00000000 l    df *ABS*	00000000 map.c
00000000 l    df *ABS*	00000000 memory.c
00000000 l    df *ABS*	00000000 paging.c
00000000 l    df *ABS*	00000000 test.c
00000000 l    df *ABS*	00000000 panic.c
00000000 l    df *ABS*	00000000 out.c
00000000 l    df *ABS*	00000000 fs.c
c000130e g       .text	00000000 breakp
c00024bb g     F .text	000000c9 cGenProt
c00047b9 g     F .text	00000093 merge
c0001155 g       .text	00000000 inb
c00037ec g     F .text	00000038 getScreenBuf
c00037d9 g     F .text	00000013 getScreenDepth
c0001363 g       .text	00000000 depricated
c00013d1 g       .text	00000000 simd
c0004a70 g     F .text	00000033 freePage
c00044cf g     F .text	0000006c useBlock
c00041e0 g     F .text	000001ff alloc
c000111d g       .text	00000000 elfJump
c0005708 g     F .text	00000211 printf
c00012f0 g       .text	00000000 divByZero
c0003d5e g     F .text	00000044 random
c0002b7c g     F .text	00000052 drawBuffer
c0001420 g       .text	00000000 lgdt
c0004e9b g     F .text	000001d3 setPage
c000410e g     F .text	00000032 initHdr
c0001090 g       .text	00000000 getCR3
c0001167 g       .text	00000000 readCR0
c001d040 g     O .bss	00000004 prot
c00048fd g     F .text	00000045 heapCoreBlocks
c0001087 g       .text	00000000 getESP
c0001116 g       .text	00000000 endProg
c0007000 g     O .data	00000004 testStr
c00029c4 g     F .text	000000aa imageBufferCpy
c0003c05 g     F .text	00000085 timerTick
c0003a1d g     F .text	00000109 elfExec
c001d02c g     O .bss	00000004 timer
c0001081 g       .text	00000000 getSS
c00041a5 g     F .text	0000003b nalloc
c00066c6 g     F .text	000000a6 list
c0001280 g       .text	00000000 irq12
c00040b8 g     F .text	00000056 examineHeap
c00023a0 g     F .text	0000002c cInvalOp
c0001189 g       .text	00000000 mutexEnter
c0001260 g       .text	00000000 irq10
c000517e g     F .text	0000040d setupPageDir
c000800c g     O .bss	00000001 scheduling
c0005dba g     F .text	00000103 printNum
c001d060 g     O .bss	00200000 bitmap
c00012a0 g       .text	00000000 irq14
c001d020 g     O .bss	00000004 screenbuf
c0007020 g     O .data	00000348 keycodes
c0008004 g     O .bss	00000004 pic
c00010da g       .text	00000000 toglePGbit
c0000000 g       .boot	00000000 _boot
c001d024 g     O .bss	00000004 font
c0001075 g       .text	00000000 getCS
c0001fef g     F .text	00000034 keyboard
c0001240 g       .text	00000000 irq8
c0005af9 g     F .text	00000275 formatDouble
c0004ba9 g     F .text	00000052 memcpy
c000453b g     F .text	000000f9 returnBlock
c0004634 g     F .text	00000057 split
c0003fa9 g     F .text	0000010d sinl
c0001178 g       .text	00000000 readCR3
c0002a6e g     F .text	0000010e imageBufferPartCpy
c0002f42 g     F .text	00000063 drawChar
c00025b0 g     F .text	0000002c cAlligned
c000107b g       .text	00000000 getDS
c00039eb g     F .text	00000032 elfJmp
c000299c g     F .text	00000026 corePaging
c000117c g       .text	00000000 writeCR3
c00010ab g       .text	00000000 setCR3
c00023f8 g     F .text	0000002c cDoubleFault
c0002dae g     F .text	00000079 printCharToBuffer
c0005ab3 g     F .text	00000046 itoa
c00025dc g     F .text	0000002c cSimd
c0002fa5 g     F .text	00000052 drawString
c0000000 g       .boot	00000000 __boot
c00037c6 g     F .text	00000013 getScreenHeight
c000614c g     F .text	000001dd fsInit
c0001270 g       .text	00000000 irq11
c00021c5 g     F .text	0000002c cNmi
c0005d6e g     F .text	0000004c dtoa
c0000000 g       .boot	00000000 boot
c00073e0 g     O .data	00000024 HEX
c000131d g       .text	00000000 overflow
c0003016 g     F .text	00000065 vgaInit
c0001210 g       .text	00000000 irq5
c0009020 g     O .bss	00010000 stack
c000205c g     F .text	0000008d checkFrame
c0002c3c g     F .text	00000083 newImageBuffer
c0001444 g     F .text	00000029 intInit
c0002348 g     F .text	0000002c coverflow
c0007370 g     O .data	00000001 state
c0004944 g     F .text	00000043 claimPage
c0005126 g     F .text	00000058 addPageTable
c0001004 g       .text	00000000 pgbit
c021d060 g     O .bss	00000100 modules
c0008010 g     O .bss	00000004 blocks
c0009000 g     O .bss	00000004 table
c0001f17 g     F .text	0000009e prepareIDT
c00013b3 g       .text	00000000 alligned
c0002023 g     F .text	00000036 picEOI
c001d028 g     O .bss	00000004 videoMode
c0006414 g     F .text	000001fb write
c0001359 g       .text	00000000 doubleFault
c0002cc0 g     F .text	00000043 textInitG
c0002bce g     F .text	0000006e drawBufferPart
c0001220 g       .text	00000000 irq6
c00011d0 g       .text	00000000 irq1
c0003824 g     F .text	0000004e elfCheck
c021d160 g       *ABS*	00000000 end
c000558b g     F .text	0000002d initPaging
c0003b28 g     F .text	00000019 exec
c0008018 g     O .bss	00000001 pageDbg
c0002ff8 g     F .text	0000001e wait
c000132c g       .text	00000000 bound
c0001386 g       .text	00000000 stackFault
c0008000 g       .bss	00000000 _bss
c0001114 g       .text	00000000 intdbg
c000736c g     O .data	00000004 seedOne
c021d160 g       *ABS*	00000000 __end
c0007380 g     O .data	0000000c cursor
c0001390 g       .text	00000000 genProt
c000468b g     F .text	0000012e splitMul
c0002e27 g     F .text	0000011b printStringToBuffer
c0003da2 g     F .text	00000112 sin
c0008009 g     O .bss	00000001 signals
c00060c9 g     F .text	00000082 reloc
c000660f g     F .text	00000031 read
c0001250 g       .text	00000000 irq9
c0000000 g       .boot	00000000 mboot
c0002374 g     F .text	0000002c cBound
c000801c g     O .bss	00000004 _fs_root
c0001fb8 g     F .text	00000037 irqHandle
c0003925 g     F .text	000000c6 coreCheck
c0001162 g       .text	00000000 ioWait
c0004140 g     F .text	00000065 realloc
c0001c08 g     F .text	000002a2 setIRQ
c0002463 g     F .text	0000002c cSnp
c0008000 g       .bss	00000000 bss
c00055b8 g     F .text	00000021 panic
c000133b g       .text	00000000 invalOp
c0002424 g     F .text	00000013 ignore
c00055f0 g     F .text	000000f9 scroll
c00028d8 g     F .text	00000044 heapStub
c0004cb8 g     F .text	000001e3 cPageFault
c0004bfb g     F .text	00000096 memcmp
c000738c g     O .data	00000001 col
c0007368 g     O .data	00000004 seedTwo
c0002760 g     F .text	00000178 init
c0002608 g     F .text	00000106 picRemap
c0004987 g     F .text	000000e9 allocPage
c0001130 g       .text	00000000 outb
c000270e g     F .text	00000026 initPIC
c0001290 g       .text	00000000 irq13
c0003c8c g     F .text	00000049 randomize
c0002d03 g     F .text	000000ab getCharBuffer
c0007000 g       .data	00000000 data
c0004b1e g     F .text	0000008b memset
c000119c g       .text	00000000 mutexTest
c000100d g       .text	00000000 DetectAPIC
c0005ebd g     F .text	0000007b printDecimalNum
c00011e0 g       .text	00000000 irq2
c00037b3 g     F .text	00000013 getScreenWidth
c0007404 g     O .data	00000004 procPath
c0003b44 g     F .text	00000073 setupTimer
c0006640 g     F .text	00000086 seek
c0007000 g       .data	00000000 __data
c0002584 g     F .text	0000002c cFpu
c0005f38 g     F .text	00000191 putc
c0001894 g     F .text	00000088 setIdtGate
c0008014 g     O .bss	00000004 pageLock
c000108c g       .text	00000000 getCR2
c000484c g     F .text	000000b1 heapAddBlocks
c000506e g     F .text	000000b8 getPhysAddr
c00020e9 g     F .text	000000dc cDivByZero
c000321d g     F .text	0000042c setModeViaPorts
c0008000 g       .bss	00000000 __bss
c00077c0 g     O .data	00000020 videoModes
c0007408 g     O .data	00000004 devPath
c000291c g     F .text	00000080 extendHeap
c00013a4 g       .text	00000000 fpu
c00023cc g     F .text	0000002c cNoMath
c0001470 g     F .text	000001a3 setGDT
c00031ff g     F .text	0000001e outp
c0003649 g     F .text	0000016a updateScreen
c0001230 g       .text	00000000 irq7
c0007000 g       .data	00000000 _data
c00021f1 g     F .text	00000157 cbp
c000137c g       .text	00000000 snp
c0003eb4 g     F .text	000000f5 sinf
c00011ab g       .text	00000000 mutexRelease
c0001142 g       .text	00000000 outw
c0019020 g     O .bss	00004000 stub
c000248f g     F .text	0000002c cStackFault
c00011c0 g       .text	00000000 irq0
c0001613 g     F .text	0000027f setEntry
c0003872 g     F .text	000000b3 coreAugment
c0003cd5 g     F .text	00000089 randomA
c0002437 g     F .text	0000002c cInvalidTSS
c021d160 g       *ABS*	00000000 _end
c000139a g       .text	00000000 pageFault
c0001008 g       .text	00000000 halt
c00073a0 g     O .data	00000024 hex
c0001372 g       .text	00000000 invalidTSS
c0001000 g       .text	00000000 code
c000134a g       .text	00000000 noMath
c0003bb7 g     F .text	0000004e setTimerFreq
c000191c g     F .text	000002ec setExceptions
c00031df g     F .text	00000020 outpw
c0008008 g     O .bss	00000001 sentinels
c0002740 g       .text	00000000 start
c0005919 g     F .text	000000a5 atoi
c0001046 g       .text	00000000 getVendor
c000307b g     F .text	00000164 setVideoMode
c00059be g     F .text	000000f5 formatInt
c0008000 g     O .bss	00000004 GDT
c0004c91 g     F .text	00000025 strlen
c000676c g     F .text	0000001a open
c0001000 g       .text	00000000 __code
c0001000 g       .text	00000000 _code
c0001404 g       .text	00000000 loadIdt
c00012b0 g       .text	00000000 irq15
c00013c2 g       .text	00000000 machine
c00012ff g       .text	00000000 nmi
c00056e9 g     F .text	0000001f println
c0006329 g     F .text	000000eb mkdir
c0006786 g     F .text	0000001a close
c0001eaa g     F .text	0000006d setIDT
c0001200 g       .text	00000000 irq4
c00011f0 g       .text	00000000 irq3
c00055dc g     F .text	00000014 textInit
c0004aa4 g     F .text	0000007a initHeap
c00043df g     F .text	000000f0 free



Disassembly of section .boot:

c0000000 <__boot>:
c0000000:	be ba de c0 40       	mov    $0x40c0deba,%esi
c0000005:	27                   	daa    
c0000006:	00 c0                	add    %al,%al
c0000008:	60                   	pusha  
c0000009:	d1 21                	shll   (%ecx)
c000000b:	c0 00 00             	rolb   $0x0,(%eax)
	...

Disassembly of section .text:

c0001000 <__code>:
c0001000:	00 00                	add    %al,(%eax)
	...

c0001004 <pgbit>:
c0001004:	00 00                	add    %al,(%eax)
	...

c0001008 <halt>:
c0001008:	9c                   	pushf  
c0001009:	fb                   	sti    
c000100a:	f4                   	hlt    
c000100b:	9d                   	popf   
c000100c:	c3                   	ret    

c000100d <DetectAPIC>:
c000100d:	55                   	push   %ebp
c000100e:	89 e5                	mov    %esp,%ebp
c0001010:	e8 31 00 00 00       	call   c0001046 <getVendor>
c0001015:	3d 01 00 00 00       	cmp    $0x1,%eax
c000101a:	75 0c                	jne    c0001028 <DetectAPIC.testAPIC>
c000101c:	3d 02 00 00 00       	cmp    $0x2,%eax
c0001021:	75 05                	jne    c0001028 <DetectAPIC.testAPIC>
c0001023:	e9 13 00 00 00       	jmp    c000103b <DetectAPIC.err>

c0001028 <DetectAPIC.testAPIC>:
c0001028:	b8 01 00 00 00       	mov    $0x1,%eax
c000102d:	0f a2                	cpuid  
c000102f:	81 f2 00 01 00 00    	xor    $0x100,%edx
c0001035:	89 d0                	mov    %edx,%eax
c0001037:	89 ec                	mov    %ebp,%esp
c0001039:	5d                   	pop    %ebp
c000103a:	c3                   	ret    

c000103b <DetectAPIC.err>:
c000103b:	31 c0                	xor    %eax,%eax
c000103d:	2d 01 00 00 00       	sub    $0x1,%eax
c0001042:	89 ec                	mov    %ebp,%esp
c0001044:	5d                   	pop    %ebp
c0001045:	c3                   	ret    

c0001046 <getVendor>:
c0001046:	55                   	push   %ebp
c0001047:	89 e5                	mov    %esp,%ebp
c0001049:	31 c0                	xor    %eax,%eax
c000104b:	0f a2                	cpuid  
c000104d:	81 fb 47 65 6e 75    	cmp    $0x756e6547,%ebx
c0001053:	74 0e                	je     c0001063 <getVendor.intel>
c0001055:	81 fb 41 75 74 68    	cmp    $0x68747541,%ebx
c000105b:	74 0f                	je     c000106c <getVendor.amdTest>
c000105d:	31 c0                	xor    %eax,%eax
c000105f:	89 ec                	mov    %ebp,%esp
c0001061:	5d                   	pop    %ebp
c0001062:	c3                   	ret    

c0001063 <getVendor.intel>:
c0001063:	b8 01 00 00 00       	mov    $0x1,%eax
c0001068:	89 ec                	mov    %ebp,%esp
c000106a:	5d                   	pop    %ebp
c000106b:	c3                   	ret    

c000106c <getVendor.amdTest>:
c000106c:	b8 02 00 00 00       	mov    $0x2,%eax
c0001071:	89 ec                	mov    %ebp,%esp
c0001073:	5d                   	pop    %ebp
c0001074:	c3                   	ret    

c0001075 <getCS>:
c0001075:	31 c0                	xor    %eax,%eax
c0001077:	66 8c c8             	mov    %cs,%ax
c000107a:	c3                   	ret    

c000107b <getDS>:
c000107b:	31 c0                	xor    %eax,%eax
c000107d:	66 8c d8             	mov    %ds,%ax
c0001080:	c3                   	ret    

c0001081 <getSS>:
c0001081:	31 c0                	xor    %eax,%eax
c0001083:	66 8c d0             	mov    %ss,%ax
c0001086:	c3                   	ret    

c0001087 <getESP>:
c0001087:	31 c0                	xor    %eax,%eax
c0001089:	89 e0                	mov    %esp,%eax
c000108b:	c3                   	ret    

c000108c <getCR2>:
c000108c:	0f 20 d0             	mov    %cr2,%eax
c000108f:	c3                   	ret    

c0001090 <getCR3>:
c0001090:	0f 20 d8             	mov    %cr3,%eax
c0001093:	c3                   	ret    

c0001094 <msg>:
c0001094:	4e                   	dec    %esi
c0001095:	4f                   	dec    %edi
c0001096:	54                   	push   %esp
c0001097:	20 59 45             	and    %bl,0x45(%ecx)
c000109a:	54                   	push   %esp
c000109b:	20 49 4d             	and    %cl,0x4d(%ecx)
c000109e:	50                   	push   %eax
c000109f:	4c                   	dec    %esp
c00010a0:	45                   	inc    %ebp
c00010a1:	4d                   	dec    %ebp
c00010a2:	45                   	inc    %ebp
c00010a3:	4d                   	dec    %ebp
c00010a4:	45                   	inc    %ebp
c00010a5:	4e                   	dec    %esi
c00010a6:	54                   	push   %esp
c00010a7:	45                   	inc    %ebp
c00010a8:	44                   	inc    %esp
c00010a9:	21 00                	and    %eax,(%eax)

c00010ab <setCR3>:
c00010ab:	55                   	push   %ebp
c00010ac:	89 e5                	mov    %esp,%ebp
c00010ae:	a1 00 10 00 c0       	mov    0xc0001000,%eax
c00010b3:	50                   	push   %eax
c00010b4:	e8 d0 00 00 00       	call   c0001189 <mutexEnter>
c00010b9:	81 c4 04 00 00 00    	add    $0x4,%esp
c00010bf:	8b 45 08             	mov    0x8(%ebp),%eax
c00010c2:	0f 22 d8             	mov    %eax,%cr3
c00010c5:	a1 00 10 00 c0       	mov    0xc0001000,%eax
c00010ca:	50                   	push   %eax
c00010cb:	e8 db 00 00 00       	call   c00011ab <mutexRelease>
c00010d0:	81 c4 04 00 00 00    	add    $0x4,%esp
c00010d6:	89 ec                	mov    %ebp,%esp
c00010d8:	5d                   	pop    %ebp
c00010d9:	c3                   	ret    

c00010da <toglePGbit>:
c00010da:	a1 00 10 00 c0       	mov    0xc0001000,%eax
c00010df:	50                   	push   %eax
c00010e0:	e8 a4 00 00 00       	call   c0001189 <mutexEnter>
c00010e5:	81 c4 04 00 00 00    	add    $0x4,%esp
c00010eb:	0f 20 c0             	mov    %cr0,%eax
c00010ee:	35 00 00 00 80       	xor    $0x80000000,%eax
c00010f3:	0f 22 c0             	mov    %eax,%cr0
c00010f6:	a1 04 10 00 c0       	mov    0xc0001004,%eax
c00010fb:	f7 d0                	not    %eax
c00010fd:	a3 04 10 00 c0       	mov    %eax,0xc0001004
c0001102:	a1 00 10 00 c0       	mov    0xc0001000,%eax
c0001107:	50                   	push   %eax
c0001108:	e8 9e 00 00 00       	call   c00011ab <mutexRelease>
c000110d:	81 c4 04 00 00 00    	add    $0x4,%esp
c0001113:	c3                   	ret    

c0001114 <intdbg>:
c0001114:	cc                   	int3   
c0001115:	c3                   	ret    

c0001116 <endProg>:
c0001116:	fa                   	cli    
c0001117:	f4                   	hlt    
c0001118:	e9 f9 ff ff ff       	jmp    c0001116 <endProg>

c000111d <elfJump>:
c000111d:	8b 5c 24 0c          	mov    0xc(%esp),%ebx
c0001121:	8b 44 24 08          	mov    0x8(%esp),%eax
c0001125:	ff 64 24 04          	jmp    *0x4(%esp)
c0001129:	90                   	nop
c000112a:	90                   	nop
c000112b:	90                   	nop
c000112c:	90                   	nop
c000112d:	90                   	nop
c000112e:	90                   	nop
c000112f:	90                   	nop

c0001130 <outb>:
c0001130:	55                   	push   %ebp
c0001131:	89 e5                	mov    %esp,%ebp
c0001133:	31 c0                	xor    %eax,%eax
c0001135:	31 d2                	xor    %edx,%edx
c0001137:	8b 45 0c             	mov    0xc(%ebp),%eax
c000113a:	8b 55 08             	mov    0x8(%ebp),%edx
c000113d:	ee                   	out    %al,(%dx)
c000113e:	89 ec                	mov    %ebp,%esp
c0001140:	5d                   	pop    %ebp
c0001141:	c3                   	ret    

c0001142 <outw>:
c0001142:	55                   	push   %ebp
c0001143:	89 e5                	mov    %esp,%ebp
c0001145:	31 c0                	xor    %eax,%eax
c0001147:	31 d2                	xor    %edx,%edx
c0001149:	8b 45 10             	mov    0x10(%ebp),%eax
c000114c:	8b 55 08             	mov    0x8(%ebp),%edx
c000114f:	66 ef                	out    %ax,(%dx)
c0001151:	89 ec                	mov    %ebp,%esp
c0001153:	5d                   	pop    %ebp
c0001154:	c3                   	ret    

c0001155 <inb>:
c0001155:	55                   	push   %ebp
c0001156:	89 e5                	mov    %esp,%ebp
c0001158:	31 c0                	xor    %eax,%eax
c000115a:	8b 55 08             	mov    0x8(%ebp),%edx
c000115d:	ec                   	in     (%dx),%al
c000115e:	89 ec                	mov    %ebp,%esp
c0001160:	5d                   	pop    %ebp
c0001161:	c3                   	ret    

c0001162 <ioWait>:
c0001162:	31 c0                	xor    %eax,%eax
c0001164:	e6 80                	out    %al,$0x80
c0001166:	c3                   	ret    

c0001167 <readCR0>:
c0001167:	0f 20 c0             	mov    %cr0,%eax
c000116a:	c3                   	ret    
c000116b:	55                   	push   %ebp
c000116c:	89 e5                	mov    %esp,%ebp
c000116e:	8b 45 08             	mov    0x8(%ebp),%eax
c0001171:	0f 22 c0             	mov    %eax,%cr0
c0001174:	89 ec                	mov    %ebp,%esp
c0001176:	5d                   	pop    %ebp
c0001177:	c3                   	ret    

c0001178 <readCR3>:
c0001178:	0f 20 d8             	mov    %cr3,%eax
c000117b:	c3                   	ret    

c000117c <writeCR3>:
c000117c:	55                   	push   %ebp
c000117d:	89 e5                	mov    %esp,%ebp
c000117f:	8b 45 08             	mov    0x8(%ebp),%eax
c0001182:	0f 22 d8             	mov    %eax,%cr3
c0001185:	89 ec                	mov    %ebp,%esp
c0001187:	5d                   	pop    %ebp
c0001188:	c3                   	ret    

c0001189 <mutexEnter>:
c0001189:	55                   	push   %ebp
c000118a:	89 e5                	mov    %esp,%ebp
c000118c:	b8 01 00 00 00       	mov    $0x1,%eax

c0001191 <mutexEnter.spin>:
c0001191:	87 45 08             	xchg   %eax,0x8(%ebp)
c0001194:	85 c0                	test   %eax,%eax
c0001196:	75 f9                	jne    c0001191 <mutexEnter.spin>
c0001198:	89 ec                	mov    %ebp,%esp
c000119a:	5d                   	pop    %ebp
c000119b:	c3                   	ret    

c000119c <mutexTest>:
c000119c:	55                   	push   %ebp
c000119d:	89 e5                	mov    %esp,%ebp
c000119f:	b8 01 00 00 00       	mov    $0x1,%eax
c00011a4:	87 45 08             	xchg   %eax,0x8(%ebp)
c00011a7:	89 ec                	mov    %ebp,%esp
c00011a9:	5d                   	pop    %ebp
c00011aa:	c3                   	ret    

c00011ab <mutexRelease>:
c00011ab:	55                   	push   %ebp
c00011ac:	89 e5                	mov    %esp,%ebp
c00011ae:	31 c0                	xor    %eax,%eax
c00011b0:	89 45 08             	mov    %eax,0x8(%ebp)
c00011b3:	89 ec                	mov    %ebp,%esp
c00011b5:	5d                   	pop    %ebp
c00011b6:	c3                   	ret    
c00011b7:	90                   	nop
c00011b8:	90                   	nop
c00011b9:	90                   	nop
c00011ba:	90                   	nop
c00011bb:	90                   	nop
c00011bc:	90                   	nop
c00011bd:	90                   	nop
c00011be:	90                   	nop
c00011bf:	90                   	nop

c00011c0 <irq0>:
c00011c0:	fa                   	cli    
c00011c1:	68 00 00 00 00       	push   $0x0
c00011c6:	68 00 00 00 00       	push   $0x0
c00011cb:	e9 f0 00 00 00       	jmp    c00012c0 <irqStub>

c00011d0 <irq1>:
c00011d0:	fa                   	cli    
c00011d1:	68 00 00 00 00       	push   $0x0
c00011d6:	68 01 00 00 00       	push   $0x1
c00011db:	e9 e0 00 00 00       	jmp    c00012c0 <irqStub>

c00011e0 <irq2>:
c00011e0:	fa                   	cli    
c00011e1:	68 00 00 00 00       	push   $0x0
c00011e6:	68 02 00 00 00       	push   $0x2
c00011eb:	e9 d0 00 00 00       	jmp    c00012c0 <irqStub>

c00011f0 <irq3>:
c00011f0:	fa                   	cli    
c00011f1:	68 00 00 00 00       	push   $0x0
c00011f6:	68 03 00 00 00       	push   $0x3
c00011fb:	e9 c0 00 00 00       	jmp    c00012c0 <irqStub>

c0001200 <irq4>:
c0001200:	fa                   	cli    
c0001201:	68 00 00 00 00       	push   $0x0
c0001206:	68 04 00 00 00       	push   $0x4
c000120b:	e9 b0 00 00 00       	jmp    c00012c0 <irqStub>

c0001210 <irq5>:
c0001210:	fa                   	cli    
c0001211:	68 00 00 00 00       	push   $0x0
c0001216:	68 05 00 00 00       	push   $0x5
c000121b:	e9 a0 00 00 00       	jmp    c00012c0 <irqStub>

c0001220 <irq6>:
c0001220:	fa                   	cli    
c0001221:	68 00 00 00 00       	push   $0x0
c0001226:	68 06 00 00 00       	push   $0x6
c000122b:	e9 90 00 00 00       	jmp    c00012c0 <irqStub>

c0001230 <irq7>:
c0001230:	fa                   	cli    
c0001231:	68 00 00 00 00       	push   $0x0
c0001236:	68 07 00 00 00       	push   $0x7
c000123b:	e9 80 00 00 00       	jmp    c00012c0 <irqStub>

c0001240 <irq8>:
c0001240:	fa                   	cli    
c0001241:	68 00 00 00 00       	push   $0x0
c0001246:	68 08 00 00 00       	push   $0x8
c000124b:	e9 70 00 00 00       	jmp    c00012c0 <irqStub>

c0001250 <irq9>:
c0001250:	fa                   	cli    
c0001251:	68 00 00 00 00       	push   $0x0
c0001256:	68 09 00 00 00       	push   $0x9
c000125b:	e9 60 00 00 00       	jmp    c00012c0 <irqStub>

c0001260 <irq10>:
c0001260:	fa                   	cli    
c0001261:	68 00 00 00 00       	push   $0x0
c0001266:	68 0a 00 00 00       	push   $0xa
c000126b:	e9 50 00 00 00       	jmp    c00012c0 <irqStub>

c0001270 <irq11>:
c0001270:	fa                   	cli    
c0001271:	68 00 00 00 00       	push   $0x0
c0001276:	68 0b 00 00 00       	push   $0xb
c000127b:	e9 40 00 00 00       	jmp    c00012c0 <irqStub>

c0001280 <irq12>:
c0001280:	fa                   	cli    
c0001281:	68 00 00 00 00       	push   $0x0
c0001286:	68 0c 00 00 00       	push   $0xc
c000128b:	e9 30 00 00 00       	jmp    c00012c0 <irqStub>

c0001290 <irq13>:
c0001290:	fa                   	cli    
c0001291:	68 00 00 00 00       	push   $0x0
c0001296:	68 0d 00 00 00       	push   $0xd
c000129b:	e9 20 00 00 00       	jmp    c00012c0 <irqStub>

c00012a0 <irq14>:
c00012a0:	fa                   	cli    
c00012a1:	68 00 00 00 00       	push   $0x0
c00012a6:	68 0e 00 00 00       	push   $0xe
c00012ab:	e9 10 00 00 00       	jmp    c00012c0 <irqStub>

c00012b0 <irq15>:
c00012b0:	fa                   	cli    
c00012b1:	68 00 00 00 00       	push   $0x0
c00012b6:	68 0f 00 00 00       	push   $0xf
c00012bb:	e9 00 00 00 00       	jmp    c00012c0 <irqStub>

c00012c0 <irqStub>:
c00012c0:	60                   	pusha  
c00012c1:	b8 10 00 00 00       	mov    $0x10,%eax
c00012c6:	66 8c da             	mov    %ds,%dx
c00012c9:	52                   	push   %edx
c00012ca:	8e d8                	mov    %eax,%ds
c00012cc:	8e c0                	mov    %eax,%es
c00012ce:	8e e0                	mov    %eax,%fs
c00012d0:	8e e8                	mov    %eax,%gs
c00012d2:	e8 e1 0c 00 00       	call   c0001fb8 <irqHandle>
c00012d7:	5a                   	pop    %edx
c00012d8:	8e da                	mov    %edx,%ds
c00012da:	8e c2                	mov    %edx,%es
c00012dc:	8e e2                	mov    %edx,%fs
c00012de:	8e ea                	mov    %edx,%gs
c00012e0:	61                   	popa   
c00012e1:	81 c4 08 00 00 00    	add    $0x8,%esp
c00012e7:	fb                   	sti    
c00012e8:	cf                   	iret   
c00012e9:	90                   	nop
c00012ea:	90                   	nop
c00012eb:	90                   	nop
c00012ec:	90                   	nop
c00012ed:	90                   	nop
c00012ee:	90                   	nop
c00012ef:	90                   	nop

c00012f0 <divByZero>:
c00012f0:	68 00 00 00 00       	push   $0x0
c00012f5:	68 e9 20 00 c0       	push   $0xc00020e9
c00012fa:	e9 dc 00 00 00       	jmp    c00013db <commonStub>

c00012ff <nmi>:
c00012ff:	68 00 00 00 00       	push   $0x0
c0001304:	68 c5 21 00 c0       	push   $0xc00021c5
c0001309:	e9 cd 00 00 00       	jmp    c00013db <commonStub>

c000130e <breakp>:
c000130e:	68 00 00 00 00       	push   $0x0
c0001313:	68 f1 21 00 c0       	push   $0xc00021f1
c0001318:	e9 be 00 00 00       	jmp    c00013db <commonStub>

c000131d <overflow>:
c000131d:	68 00 00 00 00       	push   $0x0
c0001322:	68 48 23 00 c0       	push   $0xc0002348
c0001327:	e9 af 00 00 00       	jmp    c00013db <commonStub>

c000132c <bound>:
c000132c:	68 00 00 00 00       	push   $0x0
c0001331:	68 74 23 00 c0       	push   $0xc0002374
c0001336:	e9 a0 00 00 00       	jmp    c00013db <commonStub>

c000133b <invalOp>:
c000133b:	68 00 00 00 00       	push   $0x0
c0001340:	68 a0 23 00 c0       	push   $0xc00023a0
c0001345:	e9 91 00 00 00       	jmp    c00013db <commonStub>

c000134a <noMath>:
c000134a:	68 00 00 00 00       	push   $0x0
c000134f:	68 cc 23 00 c0       	push   $0xc00023cc
c0001354:	e9 82 00 00 00       	jmp    c00013db <commonStub>

c0001359 <doubleFault>:
c0001359:	68 f8 23 00 c0       	push   $0xc00023f8
c000135e:	e9 78 00 00 00       	jmp    c00013db <commonStub>

c0001363 <depricated>:
c0001363:	68 00 00 00 00       	push   $0x0
c0001368:	68 24 24 00 c0       	push   $0xc0002424
c000136d:	e9 69 00 00 00       	jmp    c00013db <commonStub>

c0001372 <invalidTSS>:
c0001372:	68 37 24 00 c0       	push   $0xc0002437
c0001377:	e9 5f 00 00 00       	jmp    c00013db <commonStub>

c000137c <snp>:
c000137c:	68 63 24 00 c0       	push   $0xc0002463
c0001381:	e9 55 00 00 00       	jmp    c00013db <commonStub>

c0001386 <stackFault>:
c0001386:	68 8f 24 00 c0       	push   $0xc000248f
c000138b:	e9 4b 00 00 00       	jmp    c00013db <commonStub>

c0001390 <genProt>:
c0001390:	68 bb 24 00 c0       	push   $0xc00024bb
c0001395:	e9 41 00 00 00       	jmp    c00013db <commonStub>

c000139a <pageFault>:
c000139a:	68 b8 4c 00 c0       	push   $0xc0004cb8
c000139f:	e9 37 00 00 00       	jmp    c00013db <commonStub>

c00013a4 <fpu>:
c00013a4:	68 00 00 00 00       	push   $0x0
c00013a9:	68 84 25 00 c0       	push   $0xc0002584
c00013ae:	e9 28 00 00 00       	jmp    c00013db <commonStub>

c00013b3 <alligned>:
c00013b3:	68 00 00 00 00       	push   $0x0
c00013b8:	68 b0 25 00 c0       	push   $0xc00025b0
c00013bd:	e9 19 00 00 00       	jmp    c00013db <commonStub>

c00013c2 <machine>:
c00013c2:	68 00 00 00 00       	push   $0x0
c00013c7:	68 f8 23 00 c0       	push   $0xc00023f8
c00013cc:	e9 0a 00 00 00       	jmp    c00013db <commonStub>

c00013d1 <simd>:
c00013d1:	68 00 00 00 00       	push   $0x0
c00013d6:	68 dc 25 00 c0       	push   $0xc00025dc

c00013db <commonStub>:
c00013db:	60                   	pusha  
c00013dc:	8b 44 24 20          	mov    0x20(%esp),%eax
c00013e0:	66 8c da             	mov    %ds,%dx
c00013e3:	52                   	push   %edx
c00013e4:	ba 10 00 00 00       	mov    $0x10,%edx
c00013e9:	8e da                	mov    %edx,%ds
c00013eb:	8e c2                	mov    %edx,%es
c00013ed:	8e e2                	mov    %edx,%fs
c00013ef:	8e ea                	mov    %edx,%gs
c00013f1:	ff d0                	call   *%eax
c00013f3:	5a                   	pop    %edx
c00013f4:	8e da                	mov    %edx,%ds
c00013f6:	8e c2                	mov    %edx,%es
c00013f8:	8e e2                	mov    %edx,%fs
c00013fa:	8e ea                	mov    %edx,%gs
c00013fc:	61                   	popa   
c00013fd:	81 c4 08 00 00 00    	add    $0x8,%esp
c0001403:	cf                   	iret   

c0001404 <loadIdt>:
c0001404:	55                   	push   %ebp
c0001405:	89 e5                	mov    %esp,%ebp
c0001407:	8b 45 08             	mov    0x8(%ebp),%eax
c000140a:	0f 01 18             	lidtl  (%eax)
c000140d:	89 ec                	mov    %ebp,%esp
c000140f:	5d                   	pop    %ebp
c0001410:	c3                   	ret    
c0001411:	90                   	nop
c0001412:	90                   	nop
c0001413:	90                   	nop
c0001414:	90                   	nop
c0001415:	90                   	nop
c0001416:	90                   	nop
c0001417:	90                   	nop
c0001418:	90                   	nop
c0001419:	90                   	nop
c000141a:	90                   	nop
c000141b:	90                   	nop
c000141c:	90                   	nop
c000141d:	90                   	nop
c000141e:	90                   	nop
c000141f:	90                   	nop

c0001420 <lgdt>:
c0001420:	55                   	push   %ebp
c0001421:	89 e5                	mov    %esp,%ebp
c0001423:	8b 45 08             	mov    0x8(%ebp),%eax
c0001426:	0f 01 10             	lgdtl  (%eax)
c0001429:	b8 10 00 00 00       	mov    $0x10,%eax
c000142e:	8e d8                	mov    %eax,%ds
c0001430:	8e c0                	mov    %eax,%es
c0001432:	8e e0                	mov    %eax,%fs
c0001434:	8e e8                	mov    %eax,%gs
c0001436:	8e d0                	mov    %eax,%ss
c0001438:	ea 3f 14 00 c0 08 00 	ljmp   $0x8,$0xc000143f

c000143f <lgdt.flush>:
c000143f:	89 ec                	mov    %ebp,%esp
c0001441:	5d                   	pop    %ebp
c0001442:	c3                   	ret    
c0001443:	90                   	nop

c0001444 <intInit>:
c0001444:	55                   	push   %ebp
c0001445:	89 e5                	mov    %esp,%ebp
c0001447:	83 ec 18             	sub    $0x18,%esp
c000144a:	e8 c8 0a 00 00       	call   c0001f17 <prepareIDT>
c000144f:	e8 b9 fb ff ff       	call   c000100d <DetectAPIC>
c0001454:	85 c0                	test   %eax,%eax
c0001456:	74 0d                	je     c0001465 <intInit+0x21>
c0001458:	b8 0c 74 00 c0       	mov    $0xc000740c,%eax
c000145d:	89 04 24             	mov    %eax,(%esp)
c0001460:	e8 a3 42 00 00       	call   c0005708 <printf>
c0001465:	e8 a4 12 00 00       	call   c000270e <initPIC>
c000146a:	fb                   	sti    
c000146b:	c9                   	leave  
c000146c:	c3                   	ret    
c000146d:	90                   	nop
c000146e:	90                   	nop
c000146f:	90                   	nop

c0001470 <setGDT>:
c0001470:	55                   	push   %ebp
c0001471:	89 e5                	mov    %esp,%ebp
c0001473:	53                   	push   %ebx
c0001474:	83 ec 34             	sub    $0x34,%esp
c0001477:	c7 44 24 04 00 00 00 	movl   $0x0,0x4(%esp)
c000147e:	00 
c000147f:	c7 04 24 28 00 00 00 	movl   $0x28,(%esp)
c0001486:	e8 55 2d 00 00       	call   c00041e0 <alloc>
c000148b:	a3 00 80 00 c0       	mov    %eax,0xc0008000
c0001490:	a1 00 80 00 c0       	mov    0xc0008000,%eax
c0001495:	85 c0                	test   %eax,%eax
c0001497:	75 0c                	jne    c00014a5 <setGDT+0x35>
c0001499:	c7 04 24 59 74 00 c0 	movl   $0xc0007459,(%esp)
c00014a0:	e8 13 41 00 00       	call   c00055b8 <panic>
c00014a5:	c7 44 24 10 00 00 00 	movl   $0x0,0x10(%esp)
c00014ac:	00 
c00014ad:	c7 44 24 0c 00 00 00 	movl   $0x0,0xc(%esp)
c00014b4:	00 
c00014b5:	c7 44 24 08 00 00 00 	movl   $0x0,0x8(%esp)
c00014bc:	00 
c00014bd:	c7 44 24 04 00 00 00 	movl   $0x0,0x4(%esp)
c00014c4:	00 
c00014c5:	c7 04 24 00 00 00 00 	movl   $0x0,(%esp)
c00014cc:	e8 42 01 00 00       	call   c0001613 <setEntry>
c00014d1:	c7 44 24 10 00 00 00 	movl   $0x0,0x10(%esp)
c00014d8:	00 
c00014d9:	c7 44 24 0c 0a 00 00 	movl   $0xa,0xc(%esp)
c00014e0:	00 
c00014e1:	c7 44 24 08 ff ff ff 	movl   $0xffffffff,0x8(%esp)
c00014e8:	ff 
c00014e9:	c7 44 24 04 00 00 00 	movl   $0x0,0x4(%esp)
c00014f0:	00 
c00014f1:	c7 04 24 01 00 00 00 	movl   $0x1,(%esp)
c00014f8:	e8 16 01 00 00       	call   c0001613 <setEntry>
c00014fd:	c7 44 24 10 00 00 00 	movl   $0x0,0x10(%esp)
c0001504:	00 
c0001505:	c7 44 24 0c 02 00 00 	movl   $0x2,0xc(%esp)
c000150c:	00 
c000150d:	c7 44 24 08 ff ff ff 	movl   $0xffffffff,0x8(%esp)
c0001514:	ff 
c0001515:	c7 44 24 04 00 00 00 	movl   $0x0,0x4(%esp)
c000151c:	00 
c000151d:	c7 04 24 02 00 00 00 	movl   $0x2,(%esp)
c0001524:	e8 ea 00 00 00       	call   c0001613 <setEntry>
c0001529:	c7 44 24 10 03 00 00 	movl   $0x3,0x10(%esp)
c0001530:	00 
c0001531:	c7 44 24 0c 0a 00 00 	movl   $0xa,0xc(%esp)
c0001538:	00 
c0001539:	c7 44 24 08 ff ff ff 	movl   $0xffffffff,0x8(%esp)
c0001540:	ff 
c0001541:	c7 44 24 04 00 00 00 	movl   $0x0,0x4(%esp)
c0001548:	00 
c0001549:	c7 04 24 03 00 00 00 	movl   $0x3,(%esp)
c0001550:	e8 be 00 00 00       	call   c0001613 <setEntry>
c0001555:	c7 44 24 10 03 00 00 	movl   $0x3,0x10(%esp)
c000155c:	00 
c000155d:	c7 44 24 0c 02 00 00 	movl   $0x2,0xc(%esp)
c0001564:	00 
c0001565:	c7 44 24 08 ff ff ff 	movl   $0xffffffff,0x8(%esp)
c000156c:	ff 
c000156d:	c7 44 24 04 00 00 00 	movl   $0x0,0x4(%esp)
c0001574:	00 
c0001575:	c7 04 24 04 00 00 00 	movl   $0x4,(%esp)
c000157c:	e8 92 00 00 00       	call   c0001613 <setEntry>
c0001581:	c7 44 24 04 00 00 00 	movl   $0x0,0x4(%esp)
c0001588:	00 
c0001589:	c7 04 24 06 00 00 00 	movl   $0x6,(%esp)
c0001590:	e8 4b 2c 00 00       	call   c00041e0 <alloc>
c0001595:	89 45 f4             	mov    %eax,-0xc(%ebp)
c0001598:	8b 45 f4             	mov    -0xc(%ebp),%eax
c000159b:	0f b6 10             	movzbl (%eax),%edx
c000159e:	83 e2 00             	and    $0x0,%edx
c00015a1:	83 ca 28             	or     $0x28,%edx
c00015a4:	88 10                	mov    %dl,(%eax)
c00015a6:	0f b6 50 01          	movzbl 0x1(%eax),%edx
c00015aa:	83 e2 00             	and    $0x0,%edx
c00015ad:	88 50 01             	mov    %dl,0x1(%eax)
c00015b0:	a1 00 80 00 c0       	mov    0xc0008000,%eax
c00015b5:	89 c2                	mov    %eax,%edx
c00015b7:	8b 45 f4             	mov    -0xc(%ebp),%eax
c00015ba:	0f b6 ca             	movzbl %dl,%ecx
c00015bd:	0f b6 58 02          	movzbl 0x2(%eax),%ebx
c00015c1:	83 e3 00             	and    $0x0,%ebx
c00015c4:	09 d9                	or     %ebx,%ecx
c00015c6:	88 48 02             	mov    %cl,0x2(%eax)
c00015c9:	89 d1                	mov    %edx,%ecx
c00015cb:	c1 e9 08             	shr    $0x8,%ecx
c00015ce:	0f b6 d9             	movzbl %cl,%ebx
c00015d1:	0f b6 48 03          	movzbl 0x3(%eax),%ecx
c00015d5:	83 e1 00             	and    $0x0,%ecx
c00015d8:	09 d9                	or     %ebx,%ecx
c00015da:	88 48 03             	mov    %cl,0x3(%eax)
c00015dd:	89 d1                	mov    %edx,%ecx
c00015df:	c1 e9 10             	shr    $0x10,%ecx
c00015e2:	0f b6 d9             	movzbl %cl,%ebx
c00015e5:	0f b6 48 04          	movzbl 0x4(%eax),%ecx
c00015e9:	83 e1 00             	and    $0x0,%ecx
c00015ec:	09 d9                	or     %ebx,%ecx
c00015ee:	88 48 04             	mov    %cl,0x4(%eax)
c00015f1:	89 d1                	mov    %edx,%ecx
c00015f3:	c1 e9 18             	shr    $0x18,%ecx
c00015f6:	0f b6 50 05          	movzbl 0x5(%eax),%edx
c00015fa:	83 e2 00             	and    $0x0,%edx
c00015fd:	09 ca                	or     %ecx,%edx
c00015ff:	88 50 05             	mov    %dl,0x5(%eax)
c0001602:	8b 45 f4             	mov    -0xc(%ebp),%eax
c0001605:	89 04 24             	mov    %eax,(%esp)
c0001608:	e8 13 fe ff ff       	call   c0001420 <lgdt>
c000160d:	83 c4 34             	add    $0x34,%esp
c0001610:	5b                   	pop    %ebx
c0001611:	5d                   	pop    %ebp
c0001612:	c3                   	ret    

c0001613 <setEntry>:
c0001613:	55                   	push   %ebp
c0001614:	89 e5                	mov    %esp,%ebp
c0001616:	53                   	push   %ebx
c0001617:	83 7d 08 00          	cmpl   $0x0,0x8(%ebp)
c000161b:	0f 85 cf 00 00 00    	jne    c00016f0 <setEntry+0xdd>
c0001621:	a1 00 80 00 c0       	mov    0xc0008000,%eax
c0001626:	0f b6 10             	movzbl (%eax),%edx
c0001629:	83 e2 00             	and    $0x0,%edx
c000162c:	88 10                	mov    %dl,(%eax)
c000162e:	0f b6 50 01          	movzbl 0x1(%eax),%edx
c0001632:	83 e2 00             	and    $0x0,%edx
c0001635:	88 50 01             	mov    %dl,0x1(%eax)
c0001638:	a1 00 80 00 c0       	mov    0xc0008000,%eax
c000163d:	0f b6 50 02          	movzbl 0x2(%eax),%edx
c0001641:	83 e2 00             	and    $0x0,%edx
c0001644:	88 50 02             	mov    %dl,0x2(%eax)
c0001647:	0f b6 50 03          	movzbl 0x3(%eax),%edx
c000164b:	83 e2 00             	and    $0x0,%edx
c000164e:	88 50 03             	mov    %dl,0x3(%eax)
c0001651:	0f b6 50 04          	movzbl 0x4(%eax),%edx
c0001655:	83 e2 00             	and    $0x0,%edx
c0001658:	88 50 04             	mov    %dl,0x4(%eax)
c000165b:	a1 00 80 00 c0       	mov    0xc0008000,%eax
c0001660:	0f b6 50 05          	movzbl 0x5(%eax),%edx
c0001664:	83 e2 f0             	and    $0xfffffff0,%edx
c0001667:	88 50 05             	mov    %dl,0x5(%eax)
c000166a:	a1 00 80 00 c0       	mov    0xc0008000,%eax
c000166f:	0f b6 50 05          	movzbl 0x5(%eax),%edx
c0001673:	83 e2 ef             	and    $0xffffffef,%edx
c0001676:	88 50 05             	mov    %dl,0x5(%eax)
c0001679:	a1 00 80 00 c0       	mov    0xc0008000,%eax
c000167e:	0f b6 50 05          	movzbl 0x5(%eax),%edx
c0001682:	83 e2 9f             	and    $0xffffff9f,%edx
c0001685:	88 50 05             	mov    %dl,0x5(%eax)
c0001688:	a1 00 80 00 c0       	mov    0xc0008000,%eax
c000168d:	0f b6 50 05          	movzbl 0x5(%eax),%edx
c0001691:	83 e2 7f             	and    $0x7f,%edx
c0001694:	88 50 05             	mov    %dl,0x5(%eax)
c0001697:	a1 00 80 00 c0       	mov    0xc0008000,%eax
c000169c:	0f b6 50 06          	movzbl 0x6(%eax),%edx
c00016a0:	83 e2 f0             	and    $0xfffffff0,%edx
c00016a3:	88 50 06             	mov    %dl,0x6(%eax)
c00016a6:	a1 00 80 00 c0       	mov    0xc0008000,%eax
c00016ab:	0f b6 50 06          	movzbl 0x6(%eax),%edx
c00016af:	83 e2 ef             	and    $0xffffffef,%edx
c00016b2:	88 50 06             	mov    %dl,0x6(%eax)
c00016b5:	a1 00 80 00 c0       	mov    0xc0008000,%eax
c00016ba:	0f b6 50 06          	movzbl 0x6(%eax),%edx
c00016be:	83 e2 df             	and    $0xffffffdf,%edx
c00016c1:	88 50 06             	mov    %dl,0x6(%eax)
c00016c4:	a1 00 80 00 c0       	mov    0xc0008000,%eax
c00016c9:	0f b6 50 06          	movzbl 0x6(%eax),%edx
c00016cd:	83 e2 bf             	and    $0xffffffbf,%edx
c00016d0:	88 50 06             	mov    %dl,0x6(%eax)
c00016d3:	a1 00 80 00 c0       	mov    0xc0008000,%eax
c00016d8:	0f b6 50 06          	movzbl 0x6(%eax),%edx
c00016dc:	83 e2 7f             	and    $0x7f,%edx
c00016df:	88 50 06             	mov    %dl,0x6(%eax)
c00016e2:	a1 00 80 00 c0       	mov    0xc0008000,%eax
c00016e7:	c6 40 07 00          	movb   $0x0,0x7(%eax)
c00016eb:	e9 9f 01 00 00       	jmp    c000188f <setEntry+0x27c>
c00016f0:	c1 6d 10 08          	shrl   $0x8,0x10(%ebp)
c00016f4:	a1 00 80 00 c0       	mov    0xc0008000,%eax
c00016f9:	8b 55 08             	mov    0x8(%ebp),%edx
c00016fc:	c1 e2 03             	shl    $0x3,%edx
c00016ff:	01 d0                	add    %edx,%eax
c0001701:	8b 55 0c             	mov    0xc(%ebp),%edx
c0001704:	81 e2 ff ff ff 00    	and    $0xffffff,%edx
c000170a:	81 e2 ff ff ff 00    	and    $0xffffff,%edx
c0001710:	81 e2 ff ff ff 00    	and    $0xffffff,%edx
c0001716:	0f b6 ca             	movzbl %dl,%ecx
c0001719:	0f b6 58 02          	movzbl 0x2(%eax),%ebx
c000171d:	83 e3 00             	and    $0x0,%ebx
c0001720:	09 d9                	or     %ebx,%ecx
c0001722:	88 48 02             	mov    %cl,0x2(%eax)
c0001725:	89 d1                	mov    %edx,%ecx
c0001727:	c1 e9 08             	shr    $0x8,%ecx
c000172a:	0f b6 d9             	movzbl %cl,%ebx
c000172d:	0f b6 48 03          	movzbl 0x3(%eax),%ecx
c0001731:	83 e1 00             	and    $0x0,%ecx
c0001734:	09 d9                	or     %ebx,%ecx
c0001736:	88 48 03             	mov    %cl,0x3(%eax)
c0001739:	c1 ea 10             	shr    $0x10,%edx
c000173c:	0f b6 ca             	movzbl %dl,%ecx
c000173f:	0f b6 50 04          	movzbl 0x4(%eax),%edx
c0001743:	83 e2 00             	and    $0x0,%edx
c0001746:	09 ca                	or     %ecx,%edx
c0001748:	88 50 04             	mov    %dl,0x4(%eax)
c000174b:	a1 00 80 00 c0       	mov    0xc0008000,%eax
c0001750:	8b 55 08             	mov    0x8(%ebp),%edx
c0001753:	c1 e2 03             	shl    $0x3,%edx
c0001756:	8d 14 10             	lea    (%eax,%edx,1),%edx
c0001759:	8b 45 0c             	mov    0xc(%ebp),%eax
c000175c:	c1 e8 18             	shr    $0x18,%eax
c000175f:	88 42 07             	mov    %al,0x7(%edx)
c0001762:	a1 00 80 00 c0       	mov    0xc0008000,%eax
c0001767:	8b 55 08             	mov    0x8(%ebp),%edx
c000176a:	c1 e2 03             	shl    $0x3,%edx
c000176d:	01 d0                	add    %edx,%eax
c000176f:	8b 55 10             	mov    0x10(%ebp),%edx
c0001772:	0f b7 ca             	movzwl %dx,%ecx
c0001775:	0f b6 d9             	movzbl %cl,%ebx
c0001778:	0f b6 08             	movzbl (%eax),%ecx
c000177b:	83 e1 00             	and    $0x0,%ecx
c000177e:	09 d9                	or     %ebx,%ecx
c0001780:	88 08                	mov    %cl,(%eax)
c0001782:	66 c1 ea 08          	shr    $0x8,%dx
c0001786:	0f b7 d2             	movzwl %dx,%edx
c0001789:	0f b6 48 01          	movzbl 0x1(%eax),%ecx
c000178d:	83 e1 00             	and    $0x0,%ecx
c0001790:	09 ca                	or     %ecx,%edx
c0001792:	88 50 01             	mov    %dl,0x1(%eax)
c0001795:	a1 00 80 00 c0       	mov    0xc0008000,%eax
c000179a:	8b 55 08             	mov    0x8(%ebp),%edx
c000179d:	c1 e2 03             	shl    $0x3,%edx
c00017a0:	8d 14 10             	lea    (%eax,%edx,1),%edx
c00017a3:	8b 45 10             	mov    0x10(%ebp),%eax
c00017a6:	c1 e8 10             	shr    $0x10,%eax
c00017a9:	83 e0 0f             	and    $0xf,%eax
c00017ac:	83 e0 0f             	and    $0xf,%eax
c00017af:	83 e0 0f             	and    $0xf,%eax
c00017b2:	89 c1                	mov    %eax,%ecx
c00017b4:	83 e1 0f             	and    $0xf,%ecx
c00017b7:	0f b6 42 06          	movzbl 0x6(%edx),%eax
c00017bb:	83 e0 f0             	and    $0xfffffff0,%eax
c00017be:	09 c8                	or     %ecx,%eax
c00017c0:	88 42 06             	mov    %al,0x6(%edx)
c00017c3:	a1 00 80 00 c0       	mov    0xc0008000,%eax
c00017c8:	8b 55 08             	mov    0x8(%ebp),%edx
c00017cb:	c1 e2 03             	shl    $0x3,%edx
c00017ce:	8d 14 10             	lea    (%eax,%edx,1),%edx
c00017d1:	8b 45 18             	mov    0x18(%ebp),%eax
c00017d4:	83 e0 03             	and    $0x3,%eax
c00017d7:	83 e0 03             	and    $0x3,%eax
c00017da:	83 e0 03             	and    $0x3,%eax
c00017dd:	83 e0 03             	and    $0x3,%eax
c00017e0:	89 c1                	mov    %eax,%ecx
c00017e2:	c1 e1 05             	shl    $0x5,%ecx
c00017e5:	0f b6 42 05          	movzbl 0x5(%edx),%eax
c00017e9:	83 e0 9f             	and    $0xffffff9f,%eax
c00017ec:	09 c8                	or     %ecx,%eax
c00017ee:	88 42 05             	mov    %al,0x5(%edx)
c00017f1:	a1 00 80 00 c0       	mov    0xc0008000,%eax
c00017f6:	8b 55 08             	mov    0x8(%ebp),%edx
c00017f9:	c1 e2 03             	shl    $0x3,%edx
c00017fc:	8d 14 10             	lea    (%eax,%edx,1),%edx
c00017ff:	8b 45 14             	mov    0x14(%ebp),%eax
c0001802:	83 e0 0f             	and    $0xf,%eax
c0001805:	83 e0 0f             	and    $0xf,%eax
c0001808:	83 e0 0f             	and    $0xf,%eax
c000180b:	89 c1                	mov    %eax,%ecx
c000180d:	83 e1 0f             	and    $0xf,%ecx
c0001810:	0f b6 42 05          	movzbl 0x5(%edx),%eax
c0001814:	83 e0 f0             	and    $0xfffffff0,%eax
c0001817:	09 c8                	or     %ecx,%eax
c0001819:	88 42 05             	mov    %al,0x5(%edx)
c000181c:	a1 00 80 00 c0       	mov    0xc0008000,%eax
c0001821:	8b 55 08             	mov    0x8(%ebp),%edx
c0001824:	c1 e2 03             	shl    $0x3,%edx
c0001827:	01 d0                	add    %edx,%eax
c0001829:	0f b6 50 06          	movzbl 0x6(%eax),%edx
c000182d:	83 e2 df             	and    $0xffffffdf,%edx
c0001830:	88 50 06             	mov    %dl,0x6(%eax)
c0001833:	a1 00 80 00 c0       	mov    0xc0008000,%eax
c0001838:	8b 55 08             	mov    0x8(%ebp),%edx
c000183b:	c1 e2 03             	shl    $0x3,%edx
c000183e:	01 d0                	add    %edx,%eax
c0001840:	0f b6 50 05          	movzbl 0x5(%eax),%edx
c0001844:	83 ca 80             	or     $0xffffff80,%edx
c0001847:	88 50 05             	mov    %dl,0x5(%eax)
c000184a:	a1 00 80 00 c0       	mov    0xc0008000,%eax
c000184f:	8b 55 08             	mov    0x8(%ebp),%edx
c0001852:	c1 e2 03             	shl    $0x3,%edx
c0001855:	01 d0                	add    %edx,%eax
c0001857:	0f b6 50 06          	movzbl 0x6(%eax),%edx
c000185b:	83 ca 80             	or     $0xffffff80,%edx
c000185e:	88 50 06             	mov    %dl,0x6(%eax)
c0001861:	a1 00 80 00 c0       	mov    0xc0008000,%eax
c0001866:	8b 55 08             	mov    0x8(%ebp),%edx
c0001869:	c1 e2 03             	shl    $0x3,%edx
c000186c:	01 d0                	add    %edx,%eax
c000186e:	0f b6 50 05          	movzbl 0x5(%eax),%edx
c0001872:	83 ca 10             	or     $0x10,%edx
c0001875:	88 50 05             	mov    %dl,0x5(%eax)
c0001878:	a1 00 80 00 c0       	mov    0xc0008000,%eax
c000187d:	8b 55 08             	mov    0x8(%ebp),%edx
c0001880:	c1 e2 03             	shl    $0x3,%edx
c0001883:	01 d0                	add    %edx,%eax
c0001885:	0f b6 50 06          	movzbl 0x6(%eax),%edx
c0001889:	83 ca 40             	or     $0x40,%edx
c000188c:	88 50 06             	mov    %dl,0x6(%eax)
c000188f:	5b                   	pop    %ebx
c0001890:	5d                   	pop    %ebp
c0001891:	c3                   	ret    
c0001892:	90                   	nop
c0001893:	90                   	nop

c0001894 <setIdtGate>:
c0001894:	55                   	push   %ebp
c0001895:	89 e5                	mov    %esp,%ebp
c0001897:	83 ec 0c             	sub    $0xc,%esp
c000189a:	8b 4d 08             	mov    0x8(%ebp),%ecx
c000189d:	8b 55 10             	mov    0x10(%ebp),%edx
c00018a0:	8b 45 14             	mov    0x14(%ebp),%eax
c00018a3:	88 4d fc             	mov    %cl,-0x4(%ebp)
c00018a6:	66 89 55 f8          	mov    %dx,-0x8(%ebp)
c00018aa:	88 45 f4             	mov    %al,-0xc(%ebp)
c00018ad:	a1 00 90 00 c0       	mov    0xc0009000,%eax
c00018b2:	0f b6 55 fc          	movzbl -0x4(%ebp),%edx
c00018b6:	c1 e2 03             	shl    $0x3,%edx
c00018b9:	8d 14 10             	lea    (%eax,%edx,1),%edx
c00018bc:	8b 45 0c             	mov    0xc(%ebp),%eax
c00018bf:	66 89 02             	mov    %ax,(%edx)
c00018c2:	a1 00 90 00 c0       	mov    0xc0009000,%eax
c00018c7:	0f b6 55 fc          	movzbl -0x4(%ebp),%edx
c00018cb:	c1 e2 03             	shl    $0x3,%edx
c00018ce:	8d 14 10             	lea    (%eax,%edx,1),%edx
c00018d1:	8b 45 0c             	mov    0xc(%ebp),%eax
c00018d4:	c1 e8 10             	shr    $0x10,%eax
c00018d7:	66 89 42 06          	mov    %ax,0x6(%edx)
c00018db:	a1 00 90 00 c0       	mov    0xc0009000,%eax
c00018e0:	0f b6 55 fc          	movzbl -0x4(%ebp),%edx
c00018e4:	c1 e2 03             	shl    $0x3,%edx
c00018e7:	8d 14 10             	lea    (%eax,%edx,1),%edx
c00018ea:	0f b7 45 f8          	movzwl -0x8(%ebp),%eax
c00018ee:	66 89 42 02          	mov    %ax,0x2(%edx)
c00018f2:	a1 00 90 00 c0       	mov    0xc0009000,%eax
c00018f7:	0f b6 55 fc          	movzbl -0x4(%ebp),%edx
c00018fb:	c1 e2 03             	shl    $0x3,%edx
c00018fe:	01 d0                	add    %edx,%eax
c0001900:	c6 40 04 00          	movb   $0x0,0x4(%eax)
c0001904:	a1 00 90 00 c0       	mov    0xc0009000,%eax
c0001909:	0f b6 55 fc          	movzbl -0x4(%ebp),%edx
c000190d:	c1 e2 03             	shl    $0x3,%edx
c0001910:	8d 14 10             	lea    (%eax,%edx,1),%edx
c0001913:	0f b6 45 f4          	movzbl -0xc(%ebp),%eax
c0001917:	88 42 05             	mov    %al,0x5(%edx)
c000191a:	c9                   	leave  
c000191b:	c3                   	ret    

c000191c <setExceptions>:
c000191c:	55                   	push   %ebp
c000191d:	89 e5                	mov    %esp,%ebp
c000191f:	83 ec 10             	sub    $0x10,%esp
c0001922:	b8 f0 12 00 c0       	mov    $0xc00012f0,%eax
c0001927:	c7 44 24 0c 8e 00 00 	movl   $0x8e,0xc(%esp)
c000192e:	00 
c000192f:	c7 44 24 08 08 00 00 	movl   $0x8,0x8(%esp)
c0001936:	00 
c0001937:	89 44 24 04          	mov    %eax,0x4(%esp)
c000193b:	c7 04 24 00 00 00 00 	movl   $0x0,(%esp)
c0001942:	e8 4d ff ff ff       	call   c0001894 <setIdtGate>
c0001947:	b8 63 13 00 c0       	mov    $0xc0001363,%eax
c000194c:	c7 44 24 0c 8e 00 00 	movl   $0x8e,0xc(%esp)
c0001953:	00 
c0001954:	c7 44 24 08 08 00 00 	movl   $0x8,0x8(%esp)
c000195b:	00 
c000195c:	89 44 24 04          	mov    %eax,0x4(%esp)
c0001960:	c7 04 24 01 00 00 00 	movl   $0x1,(%esp)
c0001967:	e8 28 ff ff ff       	call   c0001894 <setIdtGate>
c000196c:	b8 ff 12 00 c0       	mov    $0xc00012ff,%eax
c0001971:	c7 44 24 0c 8e 00 00 	movl   $0x8e,0xc(%esp)
c0001978:	00 
c0001979:	c7 44 24 08 08 00 00 	movl   $0x8,0x8(%esp)
c0001980:	00 
c0001981:	89 44 24 04          	mov    %eax,0x4(%esp)
c0001985:	c7 04 24 02 00 00 00 	movl   $0x2,(%esp)
c000198c:	e8 03 ff ff ff       	call   c0001894 <setIdtGate>
c0001991:	b8 0e 13 00 c0       	mov    $0xc000130e,%eax
c0001996:	c7 44 24 0c 8e 00 00 	movl   $0x8e,0xc(%esp)
c000199d:	00 
c000199e:	c7 44 24 08 08 00 00 	movl   $0x8,0x8(%esp)
c00019a5:	00 
c00019a6:	89 44 24 04          	mov    %eax,0x4(%esp)
c00019aa:	c7 04 24 03 00 00 00 	movl   $0x3,(%esp)
c00019b1:	e8 de fe ff ff       	call   c0001894 <setIdtGate>
c00019b6:	b8 1d 13 00 c0       	mov    $0xc000131d,%eax
c00019bb:	c7 44 24 0c 8e 00 00 	movl   $0x8e,0xc(%esp)
c00019c2:	00 
c00019c3:	c7 44 24 08 08 00 00 	movl   $0x8,0x8(%esp)
c00019ca:	00 
c00019cb:	89 44 24 04          	mov    %eax,0x4(%esp)
c00019cf:	c7 04 24 04 00 00 00 	movl   $0x4,(%esp)
c00019d6:	e8 b9 fe ff ff       	call   c0001894 <setIdtGate>
c00019db:	b8 2c 13 00 c0       	mov    $0xc000132c,%eax
c00019e0:	c7 44 24 0c 8e 00 00 	movl   $0x8e,0xc(%esp)
c00019e7:	00 
c00019e8:	c7 44 24 08 08 00 00 	movl   $0x8,0x8(%esp)
c00019ef:	00 
c00019f0:	89 44 24 04          	mov    %eax,0x4(%esp)
c00019f4:	c7 04 24 05 00 00 00 	movl   $0x5,(%esp)
c00019fb:	e8 94 fe ff ff       	call   c0001894 <setIdtGate>
c0001a00:	b8 3b 13 00 c0       	mov    $0xc000133b,%eax
c0001a05:	c7 44 24 0c 8e 00 00 	movl   $0x8e,0xc(%esp)
c0001a0c:	00 
c0001a0d:	c7 44 24 08 08 00 00 	movl   $0x8,0x8(%esp)
c0001a14:	00 
c0001a15:	89 44 24 04          	mov    %eax,0x4(%esp)
c0001a19:	c7 04 24 06 00 00 00 	movl   $0x6,(%esp)
c0001a20:	e8 6f fe ff ff       	call   c0001894 <setIdtGate>
c0001a25:	b8 4a 13 00 c0       	mov    $0xc000134a,%eax
c0001a2a:	c7 44 24 0c 8e 00 00 	movl   $0x8e,0xc(%esp)
c0001a31:	00 
c0001a32:	c7 44 24 08 08 00 00 	movl   $0x8,0x8(%esp)
c0001a39:	00 
c0001a3a:	89 44 24 04          	mov    %eax,0x4(%esp)
c0001a3e:	c7 04 24 07 00 00 00 	movl   $0x7,(%esp)
c0001a45:	e8 4a fe ff ff       	call   c0001894 <setIdtGate>
c0001a4a:	b8 59 13 00 c0       	mov    $0xc0001359,%eax
c0001a4f:	c7 44 24 0c 8e 00 00 	movl   $0x8e,0xc(%esp)
c0001a56:	00 
c0001a57:	c7 44 24 08 08 00 00 	movl   $0x8,0x8(%esp)
c0001a5e:	00 
c0001a5f:	89 44 24 04          	mov    %eax,0x4(%esp)
c0001a63:	c7 04 24 08 00 00 00 	movl   $0x8,(%esp)
c0001a6a:	e8 25 fe ff ff       	call   c0001894 <setIdtGate>
c0001a6f:	b8 63 13 00 c0       	mov    $0xc0001363,%eax
c0001a74:	c7 44 24 0c 8e 00 00 	movl   $0x8e,0xc(%esp)
c0001a7b:	00 
c0001a7c:	c7 44 24 08 08 00 00 	movl   $0x8,0x8(%esp)
c0001a83:	00 
c0001a84:	89 44 24 04          	mov    %eax,0x4(%esp)
c0001a88:	c7 04 24 09 00 00 00 	movl   $0x9,(%esp)
c0001a8f:	e8 00 fe ff ff       	call   c0001894 <setIdtGate>
c0001a94:	b8 72 13 00 c0       	mov    $0xc0001372,%eax
c0001a99:	c7 44 24 0c 8e 00 00 	movl   $0x8e,0xc(%esp)
c0001aa0:	00 
c0001aa1:	c7 44 24 08 08 00 00 	movl   $0x8,0x8(%esp)
c0001aa8:	00 
c0001aa9:	89 44 24 04          	mov    %eax,0x4(%esp)
c0001aad:	c7 04 24 0a 00 00 00 	movl   $0xa,(%esp)
c0001ab4:	e8 db fd ff ff       	call   c0001894 <setIdtGate>
c0001ab9:	b8 7c 13 00 c0       	mov    $0xc000137c,%eax
c0001abe:	c7 44 24 0c 8e 00 00 	movl   $0x8e,0xc(%esp)
c0001ac5:	00 
c0001ac6:	c7 44 24 08 08 00 00 	movl   $0x8,0x8(%esp)
c0001acd:	00 
c0001ace:	89 44 24 04          	mov    %eax,0x4(%esp)
c0001ad2:	c7 04 24 0b 00 00 00 	movl   $0xb,(%esp)
c0001ad9:	e8 b6 fd ff ff       	call   c0001894 <setIdtGate>
c0001ade:	b8 86 13 00 c0       	mov    $0xc0001386,%eax
c0001ae3:	c7 44 24 0c 8e 00 00 	movl   $0x8e,0xc(%esp)
c0001aea:	00 
c0001aeb:	c7 44 24 08 08 00 00 	movl   $0x8,0x8(%esp)
c0001af2:	00 
c0001af3:	89 44 24 04          	mov    %eax,0x4(%esp)
c0001af7:	c7 04 24 0c 00 00 00 	movl   $0xc,(%esp)
c0001afe:	e8 91 fd ff ff       	call   c0001894 <setIdtGate>
c0001b03:	b8 90 13 00 c0       	mov    $0xc0001390,%eax
c0001b08:	c7 44 24 0c 8e 00 00 	movl   $0x8e,0xc(%esp)
c0001b0f:	00 
c0001b10:	c7 44 24 08 08 00 00 	movl   $0x8,0x8(%esp)
c0001b17:	00 
c0001b18:	89 44 24 04          	mov    %eax,0x4(%esp)
c0001b1c:	c7 04 24 0d 00 00 00 	movl   $0xd,(%esp)
c0001b23:	e8 6c fd ff ff       	call   c0001894 <setIdtGate>
c0001b28:	b8 9a 13 00 c0       	mov    $0xc000139a,%eax
c0001b2d:	c7 44 24 0c 8e 00 00 	movl   $0x8e,0xc(%esp)
c0001b34:	00 
c0001b35:	c7 44 24 08 08 00 00 	movl   $0x8,0x8(%esp)
c0001b3c:	00 
c0001b3d:	89 44 24 04          	mov    %eax,0x4(%esp)
c0001b41:	c7 04 24 0e 00 00 00 	movl   $0xe,(%esp)
c0001b48:	e8 47 fd ff ff       	call   c0001894 <setIdtGate>
c0001b4d:	b8 63 13 00 c0       	mov    $0xc0001363,%eax
c0001b52:	c7 44 24 0c 8e 00 00 	movl   $0x8e,0xc(%esp)
c0001b59:	00 
c0001b5a:	c7 44 24 08 08 00 00 	movl   $0x8,0x8(%esp)
c0001b61:	00 
c0001b62:	89 44 24 04          	mov    %eax,0x4(%esp)
c0001b66:	c7 04 24 0f 00 00 00 	movl   $0xf,(%esp)
c0001b6d:	e8 22 fd ff ff       	call   c0001894 <setIdtGate>
c0001b72:	b8 a4 13 00 c0       	mov    $0xc00013a4,%eax
c0001b77:	c7 44 24 0c 8e 00 00 	movl   $0x8e,0xc(%esp)
c0001b7e:	00 
c0001b7f:	c7 44 24 08 08 00 00 	movl   $0x8,0x8(%esp)
c0001b86:	00 
c0001b87:	89 44 24 04          	mov    %eax,0x4(%esp)
c0001b8b:	c7 04 24 10 00 00 00 	movl   $0x10,(%esp)
c0001b92:	e8 fd fc ff ff       	call   c0001894 <setIdtGate>
c0001b97:	b8 b3 13 00 c0       	mov    $0xc00013b3,%eax
c0001b9c:	c7 44 24 0c 8e 00 00 	movl   $0x8e,0xc(%esp)
c0001ba3:	00 
c0001ba4:	c7 44 24 08 08 00 00 	movl   $0x8,0x8(%esp)
c0001bab:	00 
c0001bac:	89 44 24 04          	mov    %eax,0x4(%esp)
c0001bb0:	c7 04 24 11 00 00 00 	movl   $0x11,(%esp)
c0001bb7:	e8 d8 fc ff ff       	call   c0001894 <setIdtGate>
c0001bbc:	b8 c2 13 00 c0       	mov    $0xc00013c2,%eax
c0001bc1:	c7 44 24 0c 8e 00 00 	movl   $0x8e,0xc(%esp)
c0001bc8:	00 
c0001bc9:	c7 44 24 08 08 00 00 	movl   $0x8,0x8(%esp)
c0001bd0:	00 
c0001bd1:	89 44 24 04          	mov    %eax,0x4(%esp)
c0001bd5:	c7 04 24 12 00 00 00 	movl   $0x12,(%esp)
c0001bdc:	e8 b3 fc ff ff       	call   c0001894 <setIdtGate>
c0001be1:	b8 d1 13 00 c0       	mov    $0xc00013d1,%eax
c0001be6:	c7 44 24 0c 8e 00 00 	movl   $0x8e,0xc(%esp)
c0001bed:	00 
c0001bee:	c7 44 24 08 08 00 00 	movl   $0x8,0x8(%esp)
c0001bf5:	00 
c0001bf6:	89 44 24 04          	mov    %eax,0x4(%esp)
c0001bfa:	c7 04 24 13 00 00 00 	movl   $0x13,(%esp)
c0001c01:	e8 8e fc ff ff       	call   c0001894 <setIdtGate>
c0001c06:	c9                   	leave  
c0001c07:	c3                   	ret    

c0001c08 <setIRQ>:
c0001c08:	55                   	push   %ebp
c0001c09:	89 e5                	mov    %esp,%ebp
c0001c0b:	83 ec 10             	sub    $0x10,%esp
c0001c0e:	ba c0 11 00 c0       	mov    $0xc00011c0,%edx
c0001c13:	8b 45 08             	mov    0x8(%ebp),%eax
c0001c16:	0f b6 c0             	movzbl %al,%eax
c0001c19:	c7 44 24 0c 8e 00 00 	movl   $0x8e,0xc(%esp)
c0001c20:	00 
c0001c21:	c7 44 24 08 08 00 00 	movl   $0x8,0x8(%esp)
c0001c28:	00 
c0001c29:	89 54 24 04          	mov    %edx,0x4(%esp)
c0001c2d:	89 04 24             	mov    %eax,(%esp)
c0001c30:	e8 5f fc ff ff       	call   c0001894 <setIdtGate>
c0001c35:	ba d0 11 00 c0       	mov    $0xc00011d0,%edx
c0001c3a:	8b 45 08             	mov    0x8(%ebp),%eax
c0001c3d:	83 c0 01             	add    $0x1,%eax
c0001c40:	0f b6 c0             	movzbl %al,%eax
c0001c43:	c7 44 24 0c 8e 00 00 	movl   $0x8e,0xc(%esp)
c0001c4a:	00 
c0001c4b:	c7 44 24 08 08 00 00 	movl   $0x8,0x8(%esp)
c0001c52:	00 
c0001c53:	89 54 24 04          	mov    %edx,0x4(%esp)
c0001c57:	89 04 24             	mov    %eax,(%esp)
c0001c5a:	e8 35 fc ff ff       	call   c0001894 <setIdtGate>
c0001c5f:	ba e0 11 00 c0       	mov    $0xc00011e0,%edx
c0001c64:	8b 45 08             	mov    0x8(%ebp),%eax
c0001c67:	83 c0 02             	add    $0x2,%eax
c0001c6a:	0f b6 c0             	movzbl %al,%eax
c0001c6d:	c7 44 24 0c 8e 00 00 	movl   $0x8e,0xc(%esp)
c0001c74:	00 
c0001c75:	c7 44 24 08 08 00 00 	movl   $0x8,0x8(%esp)
c0001c7c:	00 
c0001c7d:	89 54 24 04          	mov    %edx,0x4(%esp)
c0001c81:	89 04 24             	mov    %eax,(%esp)
c0001c84:	e8 0b fc ff ff       	call   c0001894 <setIdtGate>
c0001c89:	ba f0 11 00 c0       	mov    $0xc00011f0,%edx
c0001c8e:	8b 45 08             	mov    0x8(%ebp),%eax
c0001c91:	83 c0 03             	add    $0x3,%eax
c0001c94:	0f b6 c0             	movzbl %al,%eax
c0001c97:	c7 44 24 0c 8e 00 00 	movl   $0x8e,0xc(%esp)
c0001c9e:	00 
c0001c9f:	c7 44 24 08 08 00 00 	movl   $0x8,0x8(%esp)
c0001ca6:	00 
c0001ca7:	89 54 24 04          	mov    %edx,0x4(%esp)
c0001cab:	89 04 24             	mov    %eax,(%esp)
c0001cae:	e8 e1 fb ff ff       	call   c0001894 <setIdtGate>
c0001cb3:	ba 00 12 00 c0       	mov    $0xc0001200,%edx
c0001cb8:	8b 45 08             	mov    0x8(%ebp),%eax
c0001cbb:	83 c0 04             	add    $0x4,%eax
c0001cbe:	0f b6 c0             	movzbl %al,%eax
c0001cc1:	c7 44 24 0c 8e 00 00 	movl   $0x8e,0xc(%esp)
c0001cc8:	00 
c0001cc9:	c7 44 24 08 08 00 00 	movl   $0x8,0x8(%esp)
c0001cd0:	00 
c0001cd1:	89 54 24 04          	mov    %edx,0x4(%esp)
c0001cd5:	89 04 24             	mov    %eax,(%esp)
c0001cd8:	e8 b7 fb ff ff       	call   c0001894 <setIdtGate>
c0001cdd:	ba 10 12 00 c0       	mov    $0xc0001210,%edx
c0001ce2:	8b 45 08             	mov    0x8(%ebp),%eax
c0001ce5:	83 c0 05             	add    $0x5,%eax
c0001ce8:	0f b6 c0             	movzbl %al,%eax
c0001ceb:	c7 44 24 0c 8e 00 00 	movl   $0x8e,0xc(%esp)
c0001cf2:	00 
c0001cf3:	c7 44 24 08 08 00 00 	movl   $0x8,0x8(%esp)
c0001cfa:	00 
c0001cfb:	89 54 24 04          	mov    %edx,0x4(%esp)
c0001cff:	89 04 24             	mov    %eax,(%esp)
c0001d02:	e8 8d fb ff ff       	call   c0001894 <setIdtGate>
c0001d07:	ba 20 12 00 c0       	mov    $0xc0001220,%edx
c0001d0c:	8b 45 08             	mov    0x8(%ebp),%eax
c0001d0f:	83 c0 06             	add    $0x6,%eax
c0001d12:	0f b6 c0             	movzbl %al,%eax
c0001d15:	c7 44 24 0c 8e 00 00 	movl   $0x8e,0xc(%esp)
c0001d1c:	00 
c0001d1d:	c7 44 24 08 08 00 00 	movl   $0x8,0x8(%esp)
c0001d24:	00 
c0001d25:	89 54 24 04          	mov    %edx,0x4(%esp)
c0001d29:	89 04 24             	mov    %eax,(%esp)
c0001d2c:	e8 63 fb ff ff       	call   c0001894 <setIdtGate>
c0001d31:	ba 30 12 00 c0       	mov    $0xc0001230,%edx
c0001d36:	8b 45 08             	mov    0x8(%ebp),%eax
c0001d39:	83 c0 07             	add    $0x7,%eax
c0001d3c:	0f b6 c0             	movzbl %al,%eax
c0001d3f:	c7 44 24 0c 8e 00 00 	movl   $0x8e,0xc(%esp)
c0001d46:	00 
c0001d47:	c7 44 24 08 08 00 00 	movl   $0x8,0x8(%esp)
c0001d4e:	00 
c0001d4f:	89 54 24 04          	mov    %edx,0x4(%esp)
c0001d53:	89 04 24             	mov    %eax,(%esp)
c0001d56:	e8 39 fb ff ff       	call   c0001894 <setIdtGate>
c0001d5b:	ba 40 12 00 c0       	mov    $0xc0001240,%edx
c0001d60:	8b 45 08             	mov    0x8(%ebp),%eax
c0001d63:	0f b6 c0             	movzbl %al,%eax
c0001d66:	c7 44 24 0c 8e 00 00 	movl   $0x8e,0xc(%esp)
c0001d6d:	00 
c0001d6e:	c7 44 24 08 08 00 00 	movl   $0x8,0x8(%esp)
c0001d75:	00 
c0001d76:	89 54 24 04          	mov    %edx,0x4(%esp)
c0001d7a:	89 04 24             	mov    %eax,(%esp)
c0001d7d:	e8 12 fb ff ff       	call   c0001894 <setIdtGate>
c0001d82:	ba 50 12 00 c0       	mov    $0xc0001250,%edx
c0001d87:	8b 45 0c             	mov    0xc(%ebp),%eax
c0001d8a:	83 c0 01             	add    $0x1,%eax
c0001d8d:	0f b6 c0             	movzbl %al,%eax
c0001d90:	c7 44 24 0c 8e 00 00 	movl   $0x8e,0xc(%esp)
c0001d97:	00 
c0001d98:	c7 44 24 08 08 00 00 	movl   $0x8,0x8(%esp)
c0001d9f:	00 
c0001da0:	89 54 24 04          	mov    %edx,0x4(%esp)
c0001da4:	89 04 24             	mov    %eax,(%esp)
c0001da7:	e8 e8 fa ff ff       	call   c0001894 <setIdtGate>
c0001dac:	ba 60 12 00 c0       	mov    $0xc0001260,%edx
c0001db1:	8b 45 0c             	mov    0xc(%ebp),%eax
c0001db4:	83 c0 02             	add    $0x2,%eax
c0001db7:	0f b6 c0             	movzbl %al,%eax
c0001dba:	c7 44 24 0c 8e 00 00 	movl   $0x8e,0xc(%esp)
c0001dc1:	00 
c0001dc2:	c7 44 24 08 08 00 00 	movl   $0x8,0x8(%esp)
c0001dc9:	00 
c0001dca:	89 54 24 04          	mov    %edx,0x4(%esp)
c0001dce:	89 04 24             	mov    %eax,(%esp)
c0001dd1:	e8 be fa ff ff       	call   c0001894 <setIdtGate>
c0001dd6:	ba 70 12 00 c0       	mov    $0xc0001270,%edx
c0001ddb:	8b 45 0c             	mov    0xc(%ebp),%eax
c0001dde:	83 c0 03             	add    $0x3,%eax
c0001de1:	0f b6 c0             	movzbl %al,%eax
c0001de4:	c7 44 24 0c 8e 00 00 	movl   $0x8e,0xc(%esp)
c0001deb:	00 
c0001dec:	c7 44 24 08 08 00 00 	movl   $0x8,0x8(%esp)
c0001df3:	00 
c0001df4:	89 54 24 04          	mov    %edx,0x4(%esp)
c0001df8:	89 04 24             	mov    %eax,(%esp)
c0001dfb:	e8 94 fa ff ff       	call   c0001894 <setIdtGate>
c0001e00:	ba 80 12 00 c0       	mov    $0xc0001280,%edx
c0001e05:	8b 45 0c             	mov    0xc(%ebp),%eax
c0001e08:	83 c0 04             	add    $0x4,%eax
c0001e0b:	0f b6 c0             	movzbl %al,%eax
c0001e0e:	c7 44 24 0c 8e 00 00 	movl   $0x8e,0xc(%esp)
c0001e15:	00 
c0001e16:	c7 44 24 08 08 00 00 	movl   $0x8,0x8(%esp)
c0001e1d:	00 
c0001e1e:	89 54 24 04          	mov    %edx,0x4(%esp)
c0001e22:	89 04 24             	mov    %eax,(%esp)
c0001e25:	e8 6a fa ff ff       	call   c0001894 <setIdtGate>
c0001e2a:	ba 90 12 00 c0       	mov    $0xc0001290,%edx
c0001e2f:	8b 45 0c             	mov    0xc(%ebp),%eax
c0001e32:	83 c0 05             	add    $0x5,%eax
c0001e35:	0f b6 c0             	movzbl %al,%eax
c0001e38:	c7 44 24 0c 8e 00 00 	movl   $0x8e,0xc(%esp)
c0001e3f:	00 
c0001e40:	c7 44 24 08 08 00 00 	movl   $0x8,0x8(%esp)
c0001e47:	00 
c0001e48:	89 54 24 04          	mov    %edx,0x4(%esp)
c0001e4c:	89 04 24             	mov    %eax,(%esp)
c0001e4f:	e8 40 fa ff ff       	call   c0001894 <setIdtGate>
c0001e54:	ba a0 12 00 c0       	mov    $0xc00012a0,%edx
c0001e59:	8b 45 0c             	mov    0xc(%ebp),%eax
c0001e5c:	83 c0 06             	add    $0x6,%eax
c0001e5f:	0f b6 c0             	movzbl %al,%eax
c0001e62:	c7 44 24 0c 8e 00 00 	movl   $0x8e,0xc(%esp)
c0001e69:	00 
c0001e6a:	c7 44 24 08 08 00 00 	movl   $0x8,0x8(%esp)
c0001e71:	00 
c0001e72:	89 54 24 04          	mov    %edx,0x4(%esp)
c0001e76:	89 04 24             	mov    %eax,(%esp)
c0001e79:	e8 16 fa ff ff       	call   c0001894 <setIdtGate>
c0001e7e:	ba b0 12 00 c0       	mov    $0xc00012b0,%edx
c0001e83:	8b 45 0c             	mov    0xc(%ebp),%eax
c0001e86:	83 c0 07             	add    $0x7,%eax
c0001e89:	0f b6 c0             	movzbl %al,%eax
c0001e8c:	c7 44 24 0c 8e 00 00 	movl   $0x8e,0xc(%esp)
c0001e93:	00 
c0001e94:	c7 44 24 08 08 00 00 	movl   $0x8,0x8(%esp)
c0001e9b:	00 
c0001e9c:	89 54 24 04          	mov    %edx,0x4(%esp)
c0001ea0:	89 04 24             	mov    %eax,(%esp)
c0001ea3:	e8 ec f9 ff ff       	call   c0001894 <setIdtGate>
c0001ea8:	c9                   	leave  
c0001ea9:	c3                   	ret    

c0001eaa <setIDT>:
c0001eaa:	55                   	push   %ebp
c0001eab:	89 e5                	mov    %esp,%ebp
c0001ead:	53                   	push   %ebx
c0001eae:	8b 45 08             	mov    0x8(%ebp),%eax
c0001eb1:	0f b6 10             	movzbl (%eax),%edx
c0001eb4:	83 e2 00             	and    $0x0,%edx
c0001eb7:	88 10                	mov    %dl,(%eax)
c0001eb9:	0f b6 50 01          	movzbl 0x1(%eax),%edx
c0001ebd:	83 e2 00             	and    $0x0,%edx
c0001ec0:	83 ca 08             	or     $0x8,%edx
c0001ec3:	88 50 01             	mov    %dl,0x1(%eax)
c0001ec6:	8b 55 0c             	mov    0xc(%ebp),%edx
c0001ec9:	8b 45 08             	mov    0x8(%ebp),%eax
c0001ecc:	0f b6 ca             	movzbl %dl,%ecx
c0001ecf:	0f b6 58 02          	movzbl 0x2(%eax),%ebx
c0001ed3:	83 e3 00             	and    $0x0,%ebx
c0001ed6:	09 d9                	or     %ebx,%ecx
c0001ed8:	88 48 02             	mov    %cl,0x2(%eax)
c0001edb:	89 d1                	mov    %edx,%ecx
c0001edd:	c1 e9 08             	shr    $0x8,%ecx
c0001ee0:	0f b6 d9             	movzbl %cl,%ebx
c0001ee3:	0f b6 48 03          	movzbl 0x3(%eax),%ecx
c0001ee7:	83 e1 00             	and    $0x0,%ecx
c0001eea:	09 d9                	or     %ebx,%ecx
c0001eec:	88 48 03             	mov    %cl,0x3(%eax)
c0001eef:	89 d1                	mov    %edx,%ecx
c0001ef1:	c1 e9 10             	shr    $0x10,%ecx
c0001ef4:	0f b6 d9             	movzbl %cl,%ebx
c0001ef7:	0f b6 48 04          	movzbl 0x4(%eax),%ecx
c0001efb:	83 e1 00             	and    $0x0,%ecx
c0001efe:	09 d9                	or     %ebx,%ecx
c0001f00:	88 48 04             	mov    %cl,0x4(%eax)
c0001f03:	89 d1                	mov    %edx,%ecx
c0001f05:	c1 e9 18             	shr    $0x18,%ecx
c0001f08:	0f b6 50 05          	movzbl 0x5(%eax),%edx
c0001f0c:	83 e2 00             	and    $0x0,%edx
c0001f0f:	09 ca                	or     %ecx,%edx
c0001f11:	88 50 05             	mov    %dl,0x5(%eax)
c0001f14:	5b                   	pop    %ebx
c0001f15:	5d                   	pop    %ebp
c0001f16:	c3                   	ret    

c0001f17 <prepareIDT>:
c0001f17:	55                   	push   %ebp
c0001f18:	89 e5                	mov    %esp,%ebp
c0001f1a:	83 ec 28             	sub    $0x28,%esp
c0001f1d:	e8 53 f1 ff ff       	call   c0001075 <getCS>
c0001f22:	0f b7 c0             	movzwl %ax,%eax
c0001f25:	89 45 f0             	mov    %eax,-0x10(%ebp)
c0001f28:	c7 44 24 04 00 00 00 	movl   $0x0,0x4(%esp)
c0001f2f:	00 
c0001f30:	c7 04 24 00 08 00 00 	movl   $0x800,(%esp)
c0001f37:	e8 a4 22 00 00       	call   c00041e0 <alloc>
c0001f3c:	a3 00 90 00 c0       	mov    %eax,0xc0009000
c0001f41:	c7 44 24 04 00 00 00 	movl   $0x0,0x4(%esp)
c0001f48:	00 
c0001f49:	c7 04 24 06 00 00 00 	movl   $0x6,(%esp)
c0001f50:	e8 8b 22 00 00       	call   c00041e0 <alloc>
c0001f55:	89 45 f4             	mov    %eax,-0xc(%ebp)
c0001f58:	a1 00 90 00 c0       	mov    0xc0009000,%eax
c0001f5d:	85 c0                	test   %eax,%eax
c0001f5f:	74 06                	je     c0001f67 <prepareIDT+0x50>
c0001f61:	83 7d f4 00          	cmpl   $0x0,-0xc(%ebp)
c0001f65:	75 0c                	jne    c0001f73 <prepareIDT+0x5c>
c0001f67:	c7 04 24 7b 74 00 c0 	movl   $0xc000747b,(%esp)
c0001f6e:	e8 45 36 00 00       	call   c00055b8 <panic>
c0001f73:	e8 a4 f9 ff ff       	call   c000191c <setExceptions>
c0001f78:	c7 44 24 04 28 00 00 	movl   $0x28,0x4(%esp)
c0001f7f:	00 
c0001f80:	c7 04 24 20 00 00 00 	movl   $0x20,(%esp)
c0001f87:	e8 7c fc ff ff       	call   c0001c08 <setIRQ>
c0001f8c:	a1 00 90 00 c0       	mov    0xc0009000,%eax
c0001f91:	c7 44 24 08 00 01 00 	movl   $0x100,0x8(%esp)
c0001f98:	00 
c0001f99:	89 44 24 04          	mov    %eax,0x4(%esp)
c0001f9d:	8b 45 f4             	mov    -0xc(%ebp),%eax
c0001fa0:	89 04 24             	mov    %eax,(%esp)
c0001fa3:	e8 02 ff ff ff       	call   c0001eaa <setIDT>
c0001fa8:	8b 45 f4             	mov    -0xc(%ebp),%eax
c0001fab:	89 04 24             	mov    %eax,(%esp)
c0001fae:	e8 51 f4 ff ff       	call   c0001404 <loadIdt>
c0001fb3:	c9                   	leave  
c0001fb4:	c3                   	ret    
c0001fb5:	90                   	nop
c0001fb6:	90                   	nop
c0001fb7:	90                   	nop

c0001fb8 <irqHandle>:
c0001fb8:	55                   	push   %ebp
c0001fb9:	89 e5                	mov    %esp,%ebp
c0001fbb:	83 ec 18             	sub    $0x18,%esp
c0001fbe:	8b 45 2c             	mov    0x2c(%ebp),%eax
c0001fc1:	85 c0                	test   %eax,%eax
c0001fc3:	74 07                	je     c0001fcc <irqHandle+0x14>
c0001fc5:	83 f8 01             	cmp    $0x1,%eax
c0001fc8:	74 09                	je     c0001fd3 <irqHandle+0x1b>
c0001fca:	eb 0c                	jmp    c0001fd8 <irqHandle+0x20>
c0001fcc:	e8 34 1c 00 00       	call   c0003c05 <timerTick>
c0001fd1:	eb 05                	jmp    c0001fd8 <irqHandle+0x20>
c0001fd3:	e8 17 00 00 00       	call   c0001fef <keyboard>
c0001fd8:	a1 04 80 00 c0       	mov    0xc0008004,%eax
c0001fdd:	83 f8 01             	cmp    $0x1,%eax
c0001fe0:	75 0b                	jne    c0001fed <irqHandle+0x35>
c0001fe2:	8b 45 2c             	mov    0x2c(%ebp),%eax
c0001fe5:	89 04 24             	mov    %eax,(%esp)
c0001fe8:	e8 36 00 00 00       	call   c0002023 <picEOI>
c0001fed:	c9                   	leave  
c0001fee:	c3                   	ret    

c0001fef <keyboard>:
c0001fef:	55                   	push   %ebp
c0001ff0:	89 e5                	mov    %esp,%ebp
c0001ff2:	83 ec 28             	sub    $0x28,%esp
c0001ff5:	c7 04 24 60 00 00 00 	movl   $0x60,(%esp)
c0001ffc:	e8 54 f1 ff ff       	call   c0001155 <inb>
c0002001:	88 45 f7             	mov    %al,-0x9(%ebp)
c0002004:	80 7d f7 00          	cmpb   $0x0,-0x9(%ebp)
c0002008:	78 17                	js     c0002021 <keyboard+0x32>
c000200a:	0f be 45 f7          	movsbl -0x9(%ebp),%eax
c000200e:	0f b6 04 c5 27 70 00 	movzbl -0x3fff8fd9(,%eax,8),%eax
c0002015:	c0 
c0002016:	0f b6 c0             	movzbl %al,%eax
c0002019:	89 04 24             	mov    %eax,(%esp)
c000201c:	e8 17 3f 00 00       	call   c0005f38 <putc>
c0002021:	c9                   	leave  
c0002022:	c3                   	ret    

c0002023 <picEOI>:
c0002023:	55                   	push   %ebp
c0002024:	89 e5                	mov    %esp,%ebp
c0002026:	83 ec 18             	sub    $0x18,%esp
c0002029:	83 7d 08 06          	cmpl   $0x6,0x8(%ebp)
c000202d:	7e 14                	jle    c0002043 <picEOI+0x20>
c000202f:	c7 44 24 04 20 00 00 	movl   $0x20,0x4(%esp)
c0002036:	00 
c0002037:	c7 04 24 a0 00 00 00 	movl   $0xa0,(%esp)
c000203e:	e8 ed f0 ff ff       	call   c0001130 <outb>
c0002043:	c7 44 24 04 20 00 00 	movl   $0x20,0x4(%esp)
c000204a:	00 
c000204b:	c7 04 24 20 00 00 00 	movl   $0x20,(%esp)
c0002052:	e8 d9 f0 ff ff       	call   c0001130 <outb>
c0002057:	c9                   	leave  
c0002058:	c3                   	ret    
c0002059:	90                   	nop
c000205a:	90                   	nop
c000205b:	90                   	nop

c000205c <checkFrame>:
c000205c:	55                   	push   %ebp
c000205d:	89 e5                	mov    %esp,%ebp
c000205f:	83 ec 18             	sub    $0x18,%esp
c0002062:	8b 45 08             	mov    0x8(%ebp),%eax
c0002065:	8b 40 30             	mov    0x30(%eax),%eax
c0002068:	25 ff ff 00 00       	and    $0xffff,%eax
c000206d:	83 f8 08             	cmp    $0x8,%eax
c0002070:	74 35                	je     c00020a7 <checkFrame+0x4b>
c0002072:	8b 45 08             	mov    0x8(%ebp),%eax
c0002075:	8b 40 30             	mov    0x30(%eax),%eax
c0002078:	25 ff ff 00 00       	and    $0xffff,%eax
c000207d:	83 f8 18             	cmp    $0x18,%eax
c0002080:	74 25                	je     c00020a7 <checkFrame+0x4b>
c0002082:	8b 45 08             	mov    0x8(%ebp),%eax
c0002085:	8b 50 30             	mov    0x30(%eax),%edx
c0002088:	b8 94 74 00 c0       	mov    $0xc0007494,%eax
c000208d:	89 54 24 04          	mov    %edx,0x4(%esp)
c0002091:	89 04 24             	mov    %eax,(%esp)
c0002094:	e8 6f 36 00 00       	call   c0005708 <printf>
c0002099:	c7 04 24 98 74 00 c0 	movl   $0xc0007498,(%esp)
c00020a0:	e8 13 35 00 00       	call   c00055b8 <panic>
c00020a5:	eb 40                	jmp    c00020e7 <checkFrame+0x8b>
c00020a7:	8b 45 08             	mov    0x8(%ebp),%eax
c00020aa:	8b 00                	mov    (%eax),%eax
c00020ac:	25 ff ff 00 00       	and    $0xffff,%eax
c00020b1:	83 f8 10             	cmp    $0x10,%eax
c00020b4:	74 31                	je     c00020e7 <checkFrame+0x8b>
c00020b6:	8b 45 08             	mov    0x8(%ebp),%eax
c00020b9:	8b 00                	mov    (%eax),%eax
c00020bb:	25 ff ff 00 00       	and    $0xffff,%eax
c00020c0:	83 f8 20             	cmp    $0x20,%eax
c00020c3:	74 22                	je     c00020e7 <checkFrame+0x8b>
c00020c5:	8b 45 08             	mov    0x8(%ebp),%eax
c00020c8:	8b 10                	mov    (%eax),%edx
c00020ca:	b8 94 74 00 c0       	mov    $0xc0007494,%eax
c00020cf:	89 54 24 04          	mov    %edx,0x4(%esp)
c00020d3:	89 04 24             	mov    %eax,(%esp)
c00020d6:	e8 2d 36 00 00       	call   c0005708 <printf>
c00020db:	c7 04 24 a6 74 00 c0 	movl   $0xc00074a6,(%esp)
c00020e2:	e8 d1 34 00 00       	call   c00055b8 <panic>
c00020e7:	c9                   	leave  
c00020e8:	c3                   	ret    

c00020e9 <cDivByZero>:
c00020e9:	55                   	push   %ebp
c00020ea:	89 e5                	mov    %esp,%ebp
c00020ec:	57                   	push   %edi
c00020ed:	56                   	push   %esi
c00020ee:	53                   	push   %ebx
c00020ef:	83 ec 2c             	sub    $0x2c,%esp
c00020f2:	b8 b4 74 00 c0       	mov    $0xc00074b4,%eax
c00020f7:	89 04 24             	mov    %eax,(%esp)
c00020fa:	e8 09 36 00 00       	call   c0005708 <printf>
c00020ff:	8d 45 08             	lea    0x8(%ebp),%eax
c0002102:	89 04 24             	mov    %eax,(%esp)
c0002105:	e8 52 ff ff ff       	call   c000205c <checkFrame>
c000210a:	8b 45 38             	mov    0x38(%ebp),%eax
c000210d:	83 f8 08             	cmp    $0x8,%eax
c0002110:	74 0c                	je     c000211e <cDivByZero+0x35>
c0002112:	c7 04 24 b8 74 00 c0 	movl   $0xc00074b8,(%esp)
c0002119:	e8 9a 34 00 00       	call   c00055b8 <panic>
c000211e:	b8 d4 74 00 c0       	mov    $0xc00074d4,%eax
c0002123:	89 04 24             	mov    %eax,(%esp)
c0002126:	e8 dd 35 00 00       	call   c0005708 <printf>
c000212b:	8b 7d 44             	mov    0x44(%ebp),%edi
c000212e:	8b 75 40             	mov    0x40(%ebp),%esi
c0002131:	8b 5d 3c             	mov    0x3c(%ebp),%ebx
c0002134:	8b 4d 38             	mov    0x38(%ebp),%ecx
c0002137:	8b 55 34             	mov    0x34(%ebp),%edx
c000213a:	b8 f8 74 00 c0       	mov    $0xc00074f8,%eax
c000213f:	89 7c 24 14          	mov    %edi,0x14(%esp)
c0002143:	89 74 24 10          	mov    %esi,0x10(%esp)
c0002147:	89 5c 24 0c          	mov    %ebx,0xc(%esp)
c000214b:	89 4c 24 08          	mov    %ecx,0x8(%esp)
c000214f:	89 54 24 04          	mov    %edx,0x4(%esp)
c0002153:	89 04 24             	mov    %eax,(%esp)
c0002156:	e8 ad 35 00 00       	call   c0005708 <printf>
c000215b:	b8 08 75 00 c0       	mov    $0xc0007508,%eax
c0002160:	89 04 24             	mov    %eax,(%esp)
c0002163:	e8 a0 35 00 00       	call   c0005708 <printf>
c0002168:	b8 13 75 00 c0       	mov    $0xc0007513,%eax
c000216d:	89 04 24             	mov    %eax,(%esp)
c0002170:	e8 93 35 00 00       	call   c0005708 <printf>
c0002175:	e8 0d ef ff ff       	call   c0001087 <getESP>
c000217a:	89 c3                	mov    %eax,%ebx
c000217c:	e8 00 ef ff ff       	call   c0001081 <getSS>
c0002181:	0f b7 f8             	movzwl %ax,%edi
c0002184:	e8 f2 ee ff ff       	call   c000107b <getDS>
c0002189:	0f b7 f0             	movzwl %ax,%esi
c000218c:	e8 e4 ee ff ff       	call   c0001075 <getCS>
c0002191:	0f b7 d0             	movzwl %ax,%edx
c0002194:	b8 21 75 00 c0       	mov    $0xc0007521,%eax
c0002199:	89 5c 24 10          	mov    %ebx,0x10(%esp)
c000219d:	89 7c 24 0c          	mov    %edi,0xc(%esp)
c00021a1:	89 74 24 08          	mov    %esi,0x8(%esp)
c00021a5:	89 54 24 04          	mov    %edx,0x4(%esp)
c00021a9:	89 04 24             	mov    %eax,(%esp)
c00021ac:	e8 57 35 00 00       	call   c0005708 <printf>
c00021b1:	c7 04 24 2e 75 00 c0 	movl   $0xc000752e,(%esp)
c00021b8:	e8 fb 33 00 00       	call   c00055b8 <panic>
c00021bd:	83 c4 2c             	add    $0x2c,%esp
c00021c0:	5b                   	pop    %ebx
c00021c1:	5e                   	pop    %esi
c00021c2:	5f                   	pop    %edi
c00021c3:	5d                   	pop    %ebp
c00021c4:	c3                   	ret    

c00021c5 <cNmi>:
c00021c5:	55                   	push   %ebp
c00021c6:	89 e5                	mov    %esp,%ebp
c00021c8:	83 ec 18             	sub    $0x18,%esp
c00021cb:	b8 3d 75 00 c0       	mov    $0xc000753d,%eax
c00021d0:	89 04 24             	mov    %eax,(%esp)
c00021d3:	e8 30 35 00 00       	call   c0005708 <printf>
c00021d8:	8d 45 08             	lea    0x8(%ebp),%eax
c00021db:	89 04 24             	mov    %eax,(%esp)
c00021de:	e8 79 fe ff ff       	call   c000205c <checkFrame>
c00021e3:	c7 04 24 44 75 00 c0 	movl   $0xc0007544,(%esp)
c00021ea:	e8 c9 33 00 00       	call   c00055b8 <panic>
c00021ef:	c9                   	leave  
c00021f0:	c3                   	ret    

c00021f1 <cbp>:
c00021f1:	55                   	push   %ebp
c00021f2:	89 e5                	mov    %esp,%ebp
c00021f4:	57                   	push   %edi
c00021f5:	56                   	push   %esi
c00021f6:	53                   	push   %ebx
c00021f7:	83 ec 3c             	sub    $0x3c,%esp
c00021fa:	b8 75 75 00 c0       	mov    $0xc0007575,%eax
c00021ff:	89 04 24             	mov    %eax,(%esp)
c0002202:	e8 01 35 00 00       	call   c0005708 <printf>
c0002207:	c6 45 e7 00          	movb   $0x0,-0x19(%ebp)
c000220b:	0f b6 05 04 10 00 c0 	movzbl 0xc0001004,%eax
c0002212:	84 c0                	test   %al,%al
c0002214:	74 09                	je     c000221f <cbp+0x2e>
c0002216:	c6 45 e7 01          	movb   $0x1,-0x19(%ebp)
c000221a:	e8 bb ee ff ff       	call   c00010da <toglePGbit>
c000221f:	8d 45 08             	lea    0x8(%ebp),%eax
c0002222:	89 04 24             	mov    %eax,(%esp)
c0002225:	e8 32 fe ff ff       	call   c000205c <checkFrame>
c000222a:	b8 79 75 00 c0       	mov    $0xc0007579,%eax
c000222f:	89 04 24             	mov    %eax,(%esp)
c0002232:	e8 d1 34 00 00       	call   c0005708 <printf>
c0002237:	8b 75 20             	mov    0x20(%ebp),%esi
c000223a:	8b 5d 24             	mov    0x24(%ebp),%ebx
c000223d:	8b 4d 1c             	mov    0x1c(%ebp),%ecx
c0002240:	8b 55 28             	mov    0x28(%ebp),%edx
c0002243:	b8 81 75 00 c0       	mov    $0xc0007581,%eax
c0002248:	89 74 24 10          	mov    %esi,0x10(%esp)
c000224c:	89 5c 24 0c          	mov    %ebx,0xc(%esp)
c0002250:	89 4c 24 08          	mov    %ecx,0x8(%esp)
c0002254:	89 54 24 04          	mov    %edx,0x4(%esp)
c0002258:	89 04 24             	mov    %eax,(%esp)
c000225b:	e8 a8 34 00 00       	call   c0005708 <printf>
c0002260:	8b 55 08             	mov    0x8(%ebp),%edx
c0002263:	b8 9e 75 00 c0       	mov    $0xc000759e,%eax
c0002268:	89 54 24 04          	mov    %edx,0x4(%esp)
c000226c:	89 04 24             	mov    %eax,(%esp)
c000226f:	e8 94 34 00 00       	call   c0005708 <printf>
c0002274:	8b 75 18             	mov    0x18(%ebp),%esi
c0002277:	8b 5d 14             	mov    0x14(%ebp),%ebx
c000227a:	8b 4d 10             	mov    0x10(%ebp),%ecx
c000227d:	8b 55 0c             	mov    0xc(%ebp),%edx
c0002280:	b8 a6 75 00 c0       	mov    $0xc00075a6,%eax
c0002285:	89 74 24 10          	mov    %esi,0x10(%esp)
c0002289:	89 5c 24 0c          	mov    %ebx,0xc(%esp)
c000228d:	89 4c 24 08          	mov    %ecx,0x8(%esp)
c0002291:	89 54 24 04          	mov    %edx,0x4(%esp)
c0002295:	89 04 24             	mov    %eax,(%esp)
c0002298:	e8 6b 34 00 00       	call   c0005708 <printf>
c000229d:	8b 7d 44             	mov    0x44(%ebp),%edi
c00022a0:	8b 75 40             	mov    0x40(%ebp),%esi
c00022a3:	8b 5d 3c             	mov    0x3c(%ebp),%ebx
c00022a6:	8b 4d 38             	mov    0x38(%ebp),%ecx
c00022a9:	8b 55 34             	mov    0x34(%ebp),%edx
c00022ac:	b8 c4 75 00 c0       	mov    $0xc00075c4,%eax
c00022b1:	89 7c 24 14          	mov    %edi,0x14(%esp)
c00022b5:	89 74 24 10          	mov    %esi,0x10(%esp)
c00022b9:	89 5c 24 0c          	mov    %ebx,0xc(%esp)
c00022bd:	89 4c 24 08          	mov    %ecx,0x8(%esp)
c00022c1:	89 54 24 04          	mov    %edx,0x4(%esp)
c00022c5:	89 04 24             	mov    %eax,(%esp)
c00022c8:	e8 3b 34 00 00       	call   c0005708 <printf>
c00022cd:	8b 4d 2c             	mov    0x2c(%ebp),%ecx
c00022d0:	8b 55 30             	mov    0x30(%ebp),%edx
c00022d3:	b8 ee 75 00 c0       	mov    $0xc00075ee,%eax
c00022d8:	89 4c 24 08          	mov    %ecx,0x8(%esp)
c00022dc:	89 54 24 04          	mov    %edx,0x4(%esp)
c00022e0:	89 04 24             	mov    %eax,(%esp)
c00022e3:	e8 20 34 00 00       	call   c0005708 <printf>
c00022e8:	b8 08 76 00 c0       	mov    $0xc0007608,%eax
c00022ed:	89 04 24             	mov    %eax,(%esp)
c00022f0:	e8 13 34 00 00       	call   c0005708 <printf>
c00022f5:	e8 8d ed ff ff       	call   c0001087 <getESP>
c00022fa:	89 c3                	mov    %eax,%ebx
c00022fc:	e8 80 ed ff ff       	call   c0001081 <getSS>
c0002301:	0f b7 f8             	movzwl %ax,%edi
c0002304:	e8 72 ed ff ff       	call   c000107b <getDS>
c0002309:	0f b7 f0             	movzwl %ax,%esi
c000230c:	e8 64 ed ff ff       	call   c0001075 <getCS>
c0002311:	0f b7 d0             	movzwl %ax,%edx
c0002314:	b8 14 76 00 c0       	mov    $0xc0007614,%eax
c0002319:	89 5c 24 10          	mov    %ebx,0x10(%esp)
c000231d:	89 7c 24 0c          	mov    %edi,0xc(%esp)
c0002321:	89 74 24 08          	mov    %esi,0x8(%esp)
c0002325:	89 54 24 04          	mov    %edx,0x4(%esp)
c0002329:	89 04 24             	mov    %eax,(%esp)
c000232c:	e8 d7 33 00 00       	call   c0005708 <printf>
c0002331:	80 7d e7 00          	cmpb   $0x0,-0x19(%ebp)
c0002335:	74 09                	je     c0002340 <cbp+0x14f>
c0002337:	e8 9e ed ff ff       	call   c00010da <toglePGbit>
c000233c:	c6 45 e7 00          	movb   $0x0,-0x19(%ebp)
c0002340:	83 c4 3c             	add    $0x3c,%esp
c0002343:	5b                   	pop    %ebx
c0002344:	5e                   	pop    %esi
c0002345:	5f                   	pop    %edi
c0002346:	5d                   	pop    %ebp
c0002347:	c3                   	ret    

c0002348 <coverflow>:
c0002348:	55                   	push   %ebp
c0002349:	89 e5                	mov    %esp,%ebp
c000234b:	83 ec 18             	sub    $0x18,%esp
c000234e:	b8 2e 76 00 c0       	mov    $0xc000762e,%eax
c0002353:	89 04 24             	mov    %eax,(%esp)
c0002356:	e8 ad 33 00 00       	call   c0005708 <printf>
c000235b:	8d 45 08             	lea    0x8(%ebp),%eax
c000235e:	89 04 24             	mov    %eax,(%esp)
c0002361:	e8 f6 fc ff ff       	call   c000205c <checkFrame>
c0002366:	c7 04 24 32 76 00 c0 	movl   $0xc0007632,(%esp)
c000236d:	e8 46 32 00 00       	call   c00055b8 <panic>
c0002372:	c9                   	leave  
c0002373:	c3                   	ret    

c0002374 <cBound>:
c0002374:	55                   	push   %ebp
c0002375:	89 e5                	mov    %esp,%ebp
c0002377:	83 ec 18             	sub    $0x18,%esp
c000237a:	b8 3b 76 00 c0       	mov    $0xc000763b,%eax
c000237f:	89 04 24             	mov    %eax,(%esp)
c0002382:	e8 81 33 00 00       	call   c0005708 <printf>
c0002387:	8d 45 08             	lea    0x8(%ebp),%eax
c000238a:	89 04 24             	mov    %eax,(%esp)
c000238d:	e8 ca fc ff ff       	call   c000205c <checkFrame>
c0002392:	c7 04 24 3f 76 00 c0 	movl   $0xc000763f,(%esp)
c0002399:	e8 1a 32 00 00       	call   c00055b8 <panic>
c000239e:	c9                   	leave  
c000239f:	c3                   	ret    

c00023a0 <cInvalOp>:
c00023a0:	55                   	push   %ebp
c00023a1:	89 e5                	mov    %esp,%ebp
c00023a3:	83 ec 18             	sub    $0x18,%esp
c00023a6:	b8 46 76 00 c0       	mov    $0xc0007646,%eax
c00023ab:	89 04 24             	mov    %eax,(%esp)
c00023ae:	e8 55 33 00 00       	call   c0005708 <printf>
c00023b3:	8d 45 08             	lea    0x8(%ebp),%eax
c00023b6:	89 04 24             	mov    %eax,(%esp)
c00023b9:	e8 9e fc ff ff       	call   c000205c <checkFrame>
c00023be:	c7 04 24 4a 76 00 c0 	movl   $0xc000764a,(%esp)
c00023c5:	e8 ee 31 00 00       	call   c00055b8 <panic>
c00023ca:	c9                   	leave  
c00023cb:	c3                   	ret    

c00023cc <cNoMath>:
c00023cc:	55                   	push   %ebp
c00023cd:	89 e5                	mov    %esp,%ebp
c00023cf:	83 ec 18             	sub    $0x18,%esp
c00023d2:	b8 5a 76 00 c0       	mov    $0xc000765a,%eax
c00023d7:	89 04 24             	mov    %eax,(%esp)
c00023da:	e8 29 33 00 00       	call   c0005708 <printf>
c00023df:	8d 45 08             	lea    0x8(%ebp),%eax
c00023e2:	89 04 24             	mov    %eax,(%esp)
c00023e5:	e8 72 fc ff ff       	call   c000205c <checkFrame>
c00023ea:	c7 04 24 5e 76 00 c0 	movl   $0xc000765e,(%esp)
c00023f1:	e8 c2 31 00 00       	call   c00055b8 <panic>
c00023f6:	c9                   	leave  
c00023f7:	c3                   	ret    

c00023f8 <cDoubleFault>:
c00023f8:	55                   	push   %ebp
c00023f9:	89 e5                	mov    %esp,%ebp
c00023fb:	83 ec 18             	sub    $0x18,%esp
c00023fe:	b8 72 76 00 c0       	mov    $0xc0007672,%eax
c0002403:	89 04 24             	mov    %eax,(%esp)
c0002406:	e8 fd 32 00 00       	call   c0005708 <printf>
c000240b:	8d 45 08             	lea    0x8(%ebp),%eax
c000240e:	89 04 24             	mov    %eax,(%esp)
c0002411:	e8 46 fc ff ff       	call   c000205c <checkFrame>
c0002416:	c7 04 24 76 76 00 c0 	movl   $0xc0007676,(%esp)
c000241d:	e8 96 31 00 00       	call   c00055b8 <panic>
c0002422:	c9                   	leave  
c0002423:	c3                   	ret    

c0002424 <ignore>:
c0002424:	55                   	push   %ebp
c0002425:	89 e5                	mov    %esp,%ebp
c0002427:	83 ec 18             	sub    $0x18,%esp
c000242a:	8d 45 08             	lea    0x8(%ebp),%eax
c000242d:	89 04 24             	mov    %eax,(%esp)
c0002430:	e8 27 fc ff ff       	call   c000205c <checkFrame>
c0002435:	c9                   	leave  
c0002436:	c3                   	ret    

c0002437 <cInvalidTSS>:
c0002437:	55                   	push   %ebp
c0002438:	89 e5                	mov    %esp,%ebp
c000243a:	83 ec 18             	sub    $0x18,%esp
c000243d:	b8 83 76 00 c0       	mov    $0xc0007683,%eax
c0002442:	89 04 24             	mov    %eax,(%esp)
c0002445:	e8 be 32 00 00       	call   c0005708 <printf>
c000244a:	8d 45 08             	lea    0x8(%ebp),%eax
c000244d:	89 04 24             	mov    %eax,(%esp)
c0002450:	e8 07 fc ff ff       	call   c000205c <checkFrame>
c0002455:	c7 04 24 87 76 00 c0 	movl   $0xc0007687,(%esp)
c000245c:	e8 57 31 00 00       	call   c00055b8 <panic>
c0002461:	c9                   	leave  
c0002462:	c3                   	ret    

c0002463 <cSnp>:
c0002463:	55                   	push   %ebp
c0002464:	89 e5                	mov    %esp,%ebp
c0002466:	83 ec 18             	sub    $0x18,%esp
c0002469:	b8 93 76 00 c0       	mov    $0xc0007693,%eax
c000246e:	89 04 24             	mov    %eax,(%esp)
c0002471:	e8 92 32 00 00       	call   c0005708 <printf>
c0002476:	8d 45 08             	lea    0x8(%ebp),%eax
c0002479:	89 04 24             	mov    %eax,(%esp)
c000247c:	e8 db fb ff ff       	call   c000205c <checkFrame>
c0002481:	c7 04 24 97 76 00 c0 	movl   $0xc0007697,(%esp)
c0002488:	e8 2b 31 00 00       	call   c00055b8 <panic>
c000248d:	c9                   	leave  
c000248e:	c3                   	ret    

c000248f <cStackFault>:
c000248f:	55                   	push   %ebp
c0002490:	89 e5                	mov    %esp,%ebp
c0002492:	83 ec 18             	sub    $0x18,%esp
c0002495:	b8 aa 76 00 c0       	mov    $0xc00076aa,%eax
c000249a:	89 04 24             	mov    %eax,(%esp)
c000249d:	e8 66 32 00 00       	call   c0005708 <printf>
c00024a2:	8d 45 08             	lea    0x8(%ebp),%eax
c00024a5:	89 04 24             	mov    %eax,(%esp)
c00024a8:	e8 af fb ff ff       	call   c000205c <checkFrame>
c00024ad:	c7 04 24 ae 76 00 c0 	movl   $0xc00076ae,(%esp)
c00024b4:	e8 ff 30 00 00       	call   c00055b8 <panic>
c00024b9:	c9                   	leave  
c00024ba:	c3                   	ret    

c00024bb <cGenProt>:
c00024bb:	55                   	push   %ebp
c00024bc:	89 e5                	mov    %esp,%ebp
c00024be:	57                   	push   %edi
c00024bf:	56                   	push   %esi
c00024c0:	53                   	push   %ebx
c00024c1:	83 ec 2c             	sub    $0x2c,%esp
c00024c4:	b8 bb 76 00 c0       	mov    $0xc00076bb,%eax
c00024c9:	89 04 24             	mov    %eax,(%esp)
c00024cc:	e8 37 32 00 00       	call   c0005708 <printf>
c00024d1:	8d 45 08             	lea    0x8(%ebp),%eax
c00024d4:	89 04 24             	mov    %eax,(%esp)
c00024d7:	e8 80 fb ff ff       	call   c000205c <checkFrame>
c00024dc:	b8 c0 76 00 c0       	mov    $0xc00076c0,%eax
c00024e1:	89 04 24             	mov    %eax,(%esp)
c00024e4:	e8 1f 32 00 00       	call   c0005708 <printf>
c00024e9:	b8 d4 74 00 c0       	mov    $0xc00074d4,%eax
c00024ee:	89 04 24             	mov    %eax,(%esp)
c00024f1:	e8 12 32 00 00       	call   c0005708 <printf>
c00024f6:	8b 7d 44             	mov    0x44(%ebp),%edi
c00024f9:	8b 75 40             	mov    0x40(%ebp),%esi
c00024fc:	8b 5d 3c             	mov    0x3c(%ebp),%ebx
c00024ff:	8b 4d 38             	mov    0x38(%ebp),%ecx
c0002502:	8b 55 34             	mov    0x34(%ebp),%edx
c0002505:	b8 f8 74 00 c0       	mov    $0xc00074f8,%eax
c000250a:	89 7c 24 14          	mov    %edi,0x14(%esp)
c000250e:	89 74 24 10          	mov    %esi,0x10(%esp)
c0002512:	89 5c 24 0c          	mov    %ebx,0xc(%esp)
c0002516:	89 4c 24 08          	mov    %ecx,0x8(%esp)
c000251a:	89 54 24 04          	mov    %edx,0x4(%esp)
c000251e:	89 04 24             	mov    %eax,(%esp)
c0002521:	e8 e2 31 00 00       	call   c0005708 <printf>
c0002526:	b8 08 75 00 c0       	mov    $0xc0007508,%eax
c000252b:	89 04 24             	mov    %eax,(%esp)
c000252e:	e8 d5 31 00 00       	call   c0005708 <printf>
c0002533:	b8 13 75 00 c0       	mov    $0xc0007513,%eax
c0002538:	89 04 24             	mov    %eax,(%esp)
c000253b:	e8 c8 31 00 00       	call   c0005708 <printf>
c0002540:	e8 42 eb ff ff       	call   c0001087 <getESP>
c0002545:	89 c3                	mov    %eax,%ebx
c0002547:	e8 35 eb ff ff       	call   c0001081 <getSS>
c000254c:	0f b7 f8             	movzwl %ax,%edi
c000254f:	e8 27 eb ff ff       	call   c000107b <getDS>
c0002554:	0f b7 f0             	movzwl %ax,%esi
c0002557:	e8 19 eb ff ff       	call   c0001075 <getCS>
c000255c:	0f b7 d0             	movzwl %ax,%edx
c000255f:	b8 21 75 00 c0       	mov    $0xc0007521,%eax
c0002564:	89 5c 24 10          	mov    %ebx,0x10(%esp)
c0002568:	89 7c 24 0c          	mov    %edi,0xc(%esp)
c000256c:	89 74 24 08          	mov    %esi,0x8(%esp)
c0002570:	89 54 24 04          	mov    %edx,0x4(%esp)
c0002574:	89 04 24             	mov    %eax,(%esp)
c0002577:	e8 8c 31 00 00       	call   c0005708 <printf>
c000257c:	83 c4 2c             	add    $0x2c,%esp
c000257f:	5b                   	pop    %ebx
c0002580:	5e                   	pop    %esi
c0002581:	5f                   	pop    %edi
c0002582:	5d                   	pop    %ebp
c0002583:	c3                   	ret    

c0002584 <cFpu>:
c0002584:	55                   	push   %ebp
c0002585:	89 e5                	mov    %esp,%ebp
c0002587:	83 ec 18             	sub    $0x18,%esp
c000258a:	b8 f4 76 00 c0       	mov    $0xc00076f4,%eax
c000258f:	89 04 24             	mov    %eax,(%esp)
c0002592:	e8 71 31 00 00       	call   c0005708 <printf>
c0002597:	8d 45 08             	lea    0x8(%ebp),%eax
c000259a:	89 04 24             	mov    %eax,(%esp)
c000259d:	e8 ba fa ff ff       	call   c000205c <checkFrame>
c00025a2:	c7 04 24 f8 76 00 c0 	movl   $0xc00076f8,(%esp)
c00025a9:	e8 0a 30 00 00       	call   c00055b8 <panic>
c00025ae:	c9                   	leave  
c00025af:	c3                   	ret    

c00025b0 <cAlligned>:
c00025b0:	55                   	push   %ebp
c00025b1:	89 e5                	mov    %esp,%ebp
c00025b3:	83 ec 18             	sub    $0x18,%esp
c00025b6:	b8 11 77 00 c0       	mov    $0xc0007711,%eax
c00025bb:	89 04 24             	mov    %eax,(%esp)
c00025be:	e8 45 31 00 00       	call   c0005708 <printf>
c00025c3:	8d 45 08             	lea    0x8(%ebp),%eax
c00025c6:	89 04 24             	mov    %eax,(%esp)
c00025c9:	e8 8e fa ff ff       	call   c000205c <checkFrame>
c00025ce:	c7 04 24 15 77 00 c0 	movl   $0xc0007715,(%esp)
c00025d5:	e8 de 2f 00 00       	call   c00055b8 <panic>
c00025da:	c9                   	leave  
c00025db:	c3                   	ret    

c00025dc <cSimd>:
c00025dc:	55                   	push   %ebp
c00025dd:	89 e5                	mov    %esp,%ebp
c00025df:	83 ec 18             	sub    $0x18,%esp
c00025e2:	b8 28 77 00 c0       	mov    $0xc0007728,%eax
c00025e7:	89 04 24             	mov    %eax,(%esp)
c00025ea:	e8 19 31 00 00       	call   c0005708 <printf>
c00025ef:	8d 45 08             	lea    0x8(%ebp),%eax
c00025f2:	89 04 24             	mov    %eax,(%esp)
c00025f5:	e8 62 fa ff ff       	call   c000205c <checkFrame>
c00025fa:	c7 04 24 2e 77 00 c0 	movl   $0xc000772e,(%esp)
c0002601:	e8 b2 2f 00 00       	call   c00055b8 <panic>
c0002606:	c9                   	leave  
c0002607:	c3                   	ret    

c0002608 <picRemap>:
c0002608:	55                   	push   %ebp
c0002609:	89 e5                	mov    %esp,%ebp
c000260b:	83 ec 28             	sub    $0x28,%esp
c000260e:	c7 04 24 21 00 00 00 	movl   $0x21,(%esp)
c0002615:	e8 3b eb ff ff       	call   c0001155 <inb>
c000261a:	88 45 f6             	mov    %al,-0xa(%ebp)
c000261d:	c7 04 24 a1 00 00 00 	movl   $0xa1,(%esp)
c0002624:	e8 2c eb ff ff       	call   c0001155 <inb>
c0002629:	88 45 f7             	mov    %al,-0x9(%ebp)
c000262c:	c7 44 24 04 11 00 00 	movl   $0x11,0x4(%esp)
c0002633:	00 
c0002634:	c7 04 24 20 00 00 00 	movl   $0x20,(%esp)
c000263b:	e8 f0 ea ff ff       	call   c0001130 <outb>
c0002640:	c7 44 24 04 11 00 00 	movl   $0x11,0x4(%esp)
c0002647:	00 
c0002648:	c7 04 24 a0 00 00 00 	movl   $0xa0,(%esp)
c000264f:	e8 dc ea ff ff       	call   c0001130 <outb>
c0002654:	e8 09 eb ff ff       	call   c0001162 <ioWait>
c0002659:	8b 45 08             	mov    0x8(%ebp),%eax
c000265c:	0f b6 c0             	movzbl %al,%eax
c000265f:	89 44 24 04          	mov    %eax,0x4(%esp)
c0002663:	c7 04 24 21 00 00 00 	movl   $0x21,(%esp)
c000266a:	e8 c1 ea ff ff       	call   c0001130 <outb>
c000266f:	8b 45 0c             	mov    0xc(%ebp),%eax
c0002672:	0f b6 c0             	movzbl %al,%eax
c0002675:	89 44 24 04          	mov    %eax,0x4(%esp)
c0002679:	c7 04 24 a1 00 00 00 	movl   $0xa1,(%esp)
c0002680:	e8 ab ea ff ff       	call   c0001130 <outb>
c0002685:	e8 d8 ea ff ff       	call   c0001162 <ioWait>
c000268a:	c7 44 24 04 04 00 00 	movl   $0x4,0x4(%esp)
c0002691:	00 
c0002692:	c7 04 24 21 00 00 00 	movl   $0x21,(%esp)
c0002699:	e8 92 ea ff ff       	call   c0001130 <outb>
c000269e:	c7 44 24 04 02 00 00 	movl   $0x2,0x4(%esp)
c00026a5:	00 
c00026a6:	c7 04 24 a1 00 00 00 	movl   $0xa1,(%esp)
c00026ad:	e8 7e ea ff ff       	call   c0001130 <outb>
c00026b2:	e8 ab ea ff ff       	call   c0001162 <ioWait>
c00026b7:	c7 44 24 04 01 00 00 	movl   $0x1,0x4(%esp)
c00026be:	00 
c00026bf:	c7 04 24 21 00 00 00 	movl   $0x21,(%esp)
c00026c6:	e8 65 ea ff ff       	call   c0001130 <outb>
c00026cb:	c7 44 24 04 01 00 00 	movl   $0x1,0x4(%esp)
c00026d2:	00 
c00026d3:	c7 04 24 a1 00 00 00 	movl   $0xa1,(%esp)
c00026da:	e8 51 ea ff ff       	call   c0001130 <outb>
c00026df:	e8 7e ea ff ff       	call   c0001162 <ioWait>
c00026e4:	0f b6 45 f6          	movzbl -0xa(%ebp),%eax
c00026e8:	89 44 24 04          	mov    %eax,0x4(%esp)
c00026ec:	c7 04 24 21 00 00 00 	movl   $0x21,(%esp)
c00026f3:	e8 38 ea ff ff       	call   c0001130 <outb>
c00026f8:	0f b6 45 f7          	movzbl -0x9(%ebp),%eax
c00026fc:	89 44 24 04          	mov    %eax,0x4(%esp)
c0002700:	c7 04 24 a1 00 00 00 	movl   $0xa1,(%esp)
c0002707:	e8 24 ea ff ff       	call   c0001130 <outb>
c000270c:	c9                   	leave  
c000270d:	c3                   	ret    

c000270e <initPIC>:
c000270e:	55                   	push   %ebp
c000270f:	89 e5                	mov    %esp,%ebp
c0002711:	83 ec 18             	sub    $0x18,%esp
c0002714:	c7 05 04 80 00 c0 01 	movl   $0x1,0xc0008004
c000271b:	00 00 00 
c000271e:	c7 44 24 04 28 00 00 	movl   $0x28,0x4(%esp)
c0002725:	00 
c0002726:	c7 04 24 20 00 00 00 	movl   $0x20,(%esp)
c000272d:	e8 d6 fe ff ff       	call   c0002608 <picRemap>
c0002732:	c9                   	leave  
c0002733:	c3                   	ret    
	...

c0002740 <start>:
c0002740:	b9 20 90 00 c0       	mov    $0xc0009020,%ecx
c0002745:	81 c1 00 00 01 00    	add    $0x10000,%ecx
c000274b:	89 cd                	mov    %ecx,%ebp
c000274d:	89 cc                	mov    %ecx,%esp
c000274f:	54                   	push   %esp
c0002750:	50                   	push   %eax
c0002751:	53                   	push   %ebx
c0002752:	fa                   	cli    
c0002753:	e8 08 00 00 00       	call   c0002760 <init>
c0002758:	e9 fb ff ff ff       	jmp    c0002758 <start+0x18>
c000275d:	90                   	nop
c000275e:	90                   	nop
c000275f:	90                   	nop

c0002760 <init>:
c0002760:	55                   	push   %ebp
c0002761:	89 e5                	mov    %esp,%ebp
c0002763:	53                   	push   %ebx
c0002764:	83 ec 44             	sub    $0x44,%esp
c0002767:	c7 44 24 08 00 00 10 	movl   $0x100000,0x8(%esp)
c000276e:	00 
c000276f:	8b 45 08             	mov    0x8(%ebp),%eax
c0002772:	89 44 24 04          	mov    %eax,0x4(%esp)
c0002776:	c7 04 24 60 d0 01 c0 	movl   $0xc001d060,(%esp)
c000277d:	e8 27 24 00 00       	call   c0004ba9 <memcpy>
c0002782:	c7 44 24 08 20 00 00 	movl   $0x20,0x8(%esp)
c0002789:	00 
c000278a:	8b 45 0c             	mov    0xc(%ebp),%eax
c000278d:	89 44 24 04          	mov    %eax,0x4(%esp)
c0002791:	c7 04 24 60 d0 21 c0 	movl   $0xc021d060,(%esp)
c0002798:	e8 0c 24 00 00       	call   c0004ba9 <memcpy>
c000279d:	e8 3a 2e 00 00       	call   c00055dc <textInit>
c00027a2:	e8 31 01 00 00       	call   c00028d8 <heapStub>
c00027a7:	c7 44 24 04 00 00 00 	movl   $0x10000000,0x4(%esp)
c00027ae:	10 
c00027af:	c7 04 24 60 d1 21 c0 	movl   $0xc021d160,(%esp)
c00027b6:	e8 61 01 00 00       	call   c000291c <extendHeap>
c00027bb:	e8 84 ec ff ff       	call   c0001444 <intInit>
c00027c0:	e8 d7 01 00 00       	call   c000299c <corePaging>
c00027c5:	e8 a6 ec ff ff       	call   c0001470 <setGDT>
c00027ca:	c7 04 24 00 00 00 00 	movl   $0x0,(%esp)
c00027d1:	e8 76 39 00 00       	call   c000614c <fsInit>
c00027d6:	a1 1c 80 00 c0       	mov    0xc000801c,%eax
c00027db:	89 04 24             	mov    %eax,(%esp)
c00027de:	e8 e3 3e 00 00       	call   c00066c6 <list>
c00027e3:	e8 2e 08 00 00       	call   c0003016 <vgaInit>
c00027e8:	84 c0                	test   %al,%al
c00027ea:	75 0c                	jne    c00027f8 <init+0x98>
c00027ec:	c7 04 24 3c 77 00 c0 	movl   $0xc000773c,(%esp)
c00027f3:	e8 c0 2d 00 00       	call   c00055b8 <panic>
c00027f8:	8d 45 e8             	lea    -0x18(%ebp),%eax
c00027fb:	c7 44 24 08 20 00 00 	movl   $0x20,0x8(%esp)
c0002802:	00 
c0002803:	c7 44 24 04 20 00 00 	movl   $0x20,0x4(%esp)
c000280a:	00 
c000280b:	89 04 24             	mov    %eax,(%esp)
c000280e:	e8 29 04 00 00       	call   c0002c3c <newImageBuffer>
c0002813:	83 ec 04             	sub    $0x4,%esp
c0002816:	c7 45 f4 00 00 00 00 	movl   $0x0,-0xc(%ebp)
c000281d:	eb 28                	jmp    c0002847 <init+0xe7>
c000281f:	8b 55 f4             	mov    -0xc(%ebp),%edx
c0002822:	8b 45 f4             	mov    -0xc(%ebp),%eax
c0002825:	8d 48 01             	lea    0x1(%eax),%ecx
c0002828:	8b 45 e8             	mov    -0x18(%ebp),%eax
c000282b:	8b 5d f4             	mov    -0xc(%ebp),%ebx
c000282e:	c1 e3 05             	shl    $0x5,%ebx
c0002831:	01 d8                	add    %ebx,%eax
c0002833:	89 54 24 08          	mov    %edx,0x8(%esp)
c0002837:	89 4c 24 04          	mov    %ecx,0x4(%esp)
c000283b:	89 04 24             	mov    %eax,(%esp)
c000283e:	e8 db 22 00 00       	call   c0004b1e <memset>
c0002843:	83 45 f4 01          	addl   $0x1,-0xc(%ebp)
c0002847:	83 7d f4 1f          	cmpl   $0x1f,-0xc(%ebp)
c000284b:	7e d2                	jle    c000281f <init+0xbf>
c000284d:	c7 44 24 10 40 00 00 	movl   $0x40,0x10(%esp)
c0002854:	00 
c0002855:	c7 44 24 0c 40 00 00 	movl   $0x40,0xc(%esp)
c000285c:	00 
c000285d:	8b 45 e8             	mov    -0x18(%ebp),%eax
c0002860:	89 04 24             	mov    %eax,(%esp)
c0002863:	8b 45 ec             	mov    -0x14(%ebp),%eax
c0002866:	89 44 24 04          	mov    %eax,0x4(%esp)
c000286a:	8b 45 f0             	mov    -0x10(%ebp),%eax
c000286d:	89 44 24 08          	mov    %eax,0x8(%esp)
c0002871:	e8 06 03 00 00       	call   c0002b7c <drawBuffer>
c0002876:	c7 44 24 20 00 00 00 	movl   $0x0,0x20(%esp)
c000287d:	00 
c000287e:	c7 44 24 1c 00 00 00 	movl   $0x0,0x1c(%esp)
c0002885:	00 
c0002886:	c7 44 24 18 20 00 00 	movl   $0x20,0x18(%esp)
c000288d:	00 
c000288e:	c7 44 24 14 10 00 00 	movl   $0x10,0x14(%esp)
c0002895:	00 
c0002896:	c7 44 24 10 40 00 00 	movl   $0x40,0x10(%esp)
c000289d:	00 
c000289e:	c7 44 24 0c 2e 00 00 	movl   $0x2e,0xc(%esp)
c00028a5:	00 
c00028a6:	8b 45 e8             	mov    -0x18(%ebp),%eax
c00028a9:	89 04 24             	mov    %eax,(%esp)
c00028ac:	8b 45 ec             	mov    -0x14(%ebp),%eax
c00028af:	89 44 24 04          	mov    %eax,0x4(%esp)
c00028b3:	8b 45 f0             	mov    -0x10(%ebp),%eax
c00028b6:	89 44 24 08          	mov    %eax,0x8(%esp)
c00028ba:	e8 0f 03 00 00       	call   c0002bce <drawBufferPart>
c00028bf:	e8 85 0d 00 00       	call   c0003649 <updateScreen>
c00028c4:	b8 59 77 00 c0       	mov    $0xc0007759,%eax
c00028c9:	89 04 24             	mov    %eax,(%esp)
c00028cc:	e8 37 2e 00 00       	call   c0005708 <printf>
c00028d1:	e8 32 e7 ff ff       	call   c0001008 <halt>
c00028d6:	eb f9                	jmp    c00028d1 <init+0x171>

c00028d8 <heapStub>:
c00028d8:	55                   	push   %ebp
c00028d9:	89 e5                	mov    %esp,%ebp
c00028db:	83 ec 28             	sub    $0x28,%esp
c00028de:	a1 40 d0 01 c0       	mov    0xc001d040,%eax
c00028e3:	89 04 24             	mov    %eax,(%esp)
c00028e6:	e8 9e e8 ff ff       	call   c0001189 <mutexEnter>
c00028eb:	c7 45 f4 20 90 01 c0 	movl   $0xc0019020,-0xc(%ebp)
c00028f2:	c7 44 24 04 ec 3f 00 	movl   $0x3fec,0x4(%esp)
c00028f9:	00 
c00028fa:	8b 45 f4             	mov    -0xc(%ebp),%eax
c00028fd:	89 04 24             	mov    %eax,(%esp)
c0002900:	e8 09 18 00 00       	call   c000410e <initHdr>
c0002905:	8b 45 f4             	mov    -0xc(%ebp),%eax
c0002908:	a3 10 80 00 c0       	mov    %eax,0xc0008010
c000290d:	a1 40 d0 01 c0       	mov    0xc001d040,%eax
c0002912:	89 04 24             	mov    %eax,(%esp)
c0002915:	e8 91 e8 ff ff       	call   c00011ab <mutexRelease>
c000291a:	c9                   	leave  
c000291b:	c3                   	ret    

c000291c <extendHeap>:
c000291c:	55                   	push   %ebp
c000291d:	89 e5                	mov    %esp,%ebp
c000291f:	83 ec 28             	sub    $0x28,%esp
c0002922:	a1 40 d0 01 c0       	mov    0xc001d040,%eax
c0002927:	89 04 24             	mov    %eax,(%esp)
c000292a:	e8 5a e8 ff ff       	call   c0001189 <mutexEnter>
c000292f:	8b 45 08             	mov    0x8(%ebp),%eax
c0002932:	89 45 ec             	mov    %eax,-0x14(%ebp)
c0002935:	8b 45 0c             	mov    0xc(%ebp),%eax
c0002938:	83 e8 14             	sub    $0x14,%eax
c000293b:	89 44 24 04          	mov    %eax,0x4(%esp)
c000293f:	8b 45 ec             	mov    -0x14(%ebp),%eax
c0002942:	89 04 24             	mov    %eax,(%esp)
c0002945:	e8 c4 17 00 00       	call   c000410e <initHdr>
c000294a:	a1 10 80 00 c0       	mov    0xc0008010,%eax
c000294f:	89 45 f0             	mov    %eax,-0x10(%ebp)
c0002952:	eb 09                	jmp    c000295d <extendHeap+0x41>
c0002954:	8b 45 f0             	mov    -0x10(%ebp),%eax
c0002957:	8b 40 08             	mov    0x8(%eax),%eax
c000295a:	89 45 f0             	mov    %eax,-0x10(%ebp)
c000295d:	8b 45 f0             	mov    -0x10(%ebp),%eax
c0002960:	8b 40 08             	mov    0x8(%eax),%eax
c0002963:	3b 45 ec             	cmp    -0x14(%ebp),%eax
c0002966:	73 0a                	jae    c0002972 <extendHeap+0x56>
c0002968:	8b 45 f0             	mov    -0x10(%ebp),%eax
c000296b:	8b 40 08             	mov    0x8(%eax),%eax
c000296e:	85 c0                	test   %eax,%eax
c0002970:	75 e2                	jne    c0002954 <extendHeap+0x38>
c0002972:	8b 45 f0             	mov    -0x10(%ebp),%eax
c0002975:	8b 40 08             	mov    0x8(%eax),%eax
c0002978:	89 45 f4             	mov    %eax,-0xc(%ebp)
c000297b:	8b 45 f0             	mov    -0x10(%ebp),%eax
c000297e:	8b 55 ec             	mov    -0x14(%ebp),%edx
c0002981:	89 50 08             	mov    %edx,0x8(%eax)
c0002984:	8b 45 ec             	mov    -0x14(%ebp),%eax
c0002987:	8b 55 f4             	mov    -0xc(%ebp),%edx
c000298a:	89 50 08             	mov    %edx,0x8(%eax)
c000298d:	a1 40 d0 01 c0       	mov    0xc001d040,%eax
c0002992:	89 04 24             	mov    %eax,(%esp)
c0002995:	e8 11 e8 ff ff       	call   c00011ab <mutexRelease>
c000299a:	c9                   	leave  
c000299b:	c3                   	ret    

c000299c <corePaging>:
c000299c:	55                   	push   %ebp
c000299d:	89 e5                	mov    %esp,%ebp
c000299f:	83 ec 18             	sub    $0x18,%esp
c00029a2:	c6 05 70 73 00 c0 04 	movb   $0x4,0xc0007370
c00029a9:	c7 05 14 80 00 c0 00 	movl   $0x0,0xc0008014
c00029b0:	00 00 00 
c00029b3:	b8 78 77 00 c0       	mov    $0xc0007778,%eax
c00029b8:	89 04 24             	mov    %eax,(%esp)
c00029bb:	e8 48 2d 00 00       	call   c0005708 <printf>
c00029c0:	c9                   	leave  
c00029c1:	c3                   	ret    
	...

c00029c4 <imageBufferCpy>:
c00029c4:	55                   	push   %ebp
c00029c5:	89 e5                	mov    %esp,%ebp
c00029c7:	83 ec 38             	sub    $0x38,%esp
c00029ca:	c7 45 e4 00 00 00 00 	movl   $0x0,-0x1c(%ebp)
c00029d1:	8b 45 18             	mov    0x18(%ebp),%eax
c00029d4:	8b 4d 0c             	mov    0xc(%ebp),%ecx
c00029d7:	8b 55 20             	mov    0x20(%ebp),%edx
c00029da:	8d 14 11             	lea    (%ecx,%edx,1),%edx
c00029dd:	39 d0                	cmp    %edx,%eax
c00029df:	76 05                	jbe    c00029e6 <imageBufferCpy+0x22>
c00029e1:	8b 45 0c             	mov    0xc(%ebp),%eax
c00029e4:	eb 0c                	jmp    c00029f2 <imageBufferCpy+0x2e>
c00029e6:	8b 55 18             	mov    0x18(%ebp),%edx
c00029e9:	8b 45 20             	mov    0x20(%ebp),%eax
c00029ec:	89 d1                	mov    %edx,%ecx
c00029ee:	29 c1                	sub    %eax,%ecx
c00029f0:	89 c8                	mov    %ecx,%eax
c00029f2:	89 45 e8             	mov    %eax,-0x18(%ebp)
c00029f5:	8b 45 1c             	mov    0x1c(%ebp),%eax
c00029f8:	8b 4d 10             	mov    0x10(%ebp),%ecx
c00029fb:	8b 55 24             	mov    0x24(%ebp),%edx
c00029fe:	8d 14 11             	lea    (%ecx,%edx,1),%edx
c0002a01:	39 d0                	cmp    %edx,%eax
c0002a03:	76 05                	jbe    c0002a0a <imageBufferCpy+0x46>
c0002a05:	8b 45 10             	mov    0x10(%ebp),%eax
c0002a08:	eb 0c                	jmp    c0002a16 <imageBufferCpy+0x52>
c0002a0a:	8b 55 1c             	mov    0x1c(%ebp),%edx
c0002a0d:	8b 45 24             	mov    0x24(%ebp),%eax
c0002a10:	89 d1                	mov    %edx,%ecx
c0002a12:	29 c1                	sub    %eax,%ecx
c0002a14:	89 c8                	mov    %ecx,%eax
c0002a16:	89 45 ec             	mov    %eax,-0x14(%ebp)
c0002a19:	8b 45 08             	mov    0x8(%ebp),%eax
c0002a1c:	89 45 f0             	mov    %eax,-0x10(%ebp)
c0002a1f:	8b 45 14             	mov    0x14(%ebp),%eax
c0002a22:	89 c2                	mov    %eax,%edx
c0002a24:	8b 45 20             	mov    0x20(%ebp),%eax
c0002a27:	8d 0c 02             	lea    (%edx,%eax,1),%ecx
c0002a2a:	8b 55 18             	mov    0x18(%ebp),%edx
c0002a2d:	8b 45 24             	mov    0x24(%ebp),%eax
c0002a30:	0f af c2             	imul   %edx,%eax
c0002a33:	8d 04 01             	lea    (%ecx,%eax,1),%eax
c0002a36:	89 45 f4             	mov    %eax,-0xc(%ebp)
c0002a39:	eb 29                	jmp    c0002a64 <imageBufferCpy+0xa0>
c0002a3b:	8b 55 f0             	mov    -0x10(%ebp),%edx
c0002a3e:	8b 45 f4             	mov    -0xc(%ebp),%eax
c0002a41:	8b 4d e8             	mov    -0x18(%ebp),%ecx
c0002a44:	89 4c 24 08          	mov    %ecx,0x8(%esp)
c0002a48:	89 54 24 04          	mov    %edx,0x4(%esp)
c0002a4c:	89 04 24             	mov    %eax,(%esp)
c0002a4f:	e8 55 21 00 00       	call   c0004ba9 <memcpy>
c0002a54:	8b 45 0c             	mov    0xc(%ebp),%eax
c0002a57:	01 45 f0             	add    %eax,-0x10(%ebp)
c0002a5a:	8b 45 18             	mov    0x18(%ebp),%eax
c0002a5d:	01 45 f4             	add    %eax,-0xc(%ebp)
c0002a60:	83 45 e4 01          	addl   $0x1,-0x1c(%ebp)
c0002a64:	8b 45 e4             	mov    -0x1c(%ebp),%eax
c0002a67:	3b 45 ec             	cmp    -0x14(%ebp),%eax
c0002a6a:	72 cf                	jb     c0002a3b <imageBufferCpy+0x77>
c0002a6c:	c9                   	leave  
c0002a6d:	c3                   	ret    

c0002a6e <imageBufferPartCpy>:
c0002a6e:	55                   	push   %ebp
c0002a6f:	89 e5                	mov    %esp,%ebp
c0002a71:	83 ec 38             	sub    $0x38,%esp
c0002a74:	c7 45 e4 00 00 00 00 	movl   $0x0,-0x1c(%ebp)
c0002a7b:	8b 55 0c             	mov    0xc(%ebp),%edx
c0002a7e:	8b 45 30             	mov    0x30(%ebp),%eax
c0002a81:	8b 4d 28             	mov    0x28(%ebp),%ecx
c0002a84:	8d 04 01             	lea    (%ecx,%eax,1),%eax
c0002a87:	39 c2                	cmp    %eax,%edx
c0002a89:	77 0e                	ja     c0002a99 <imageBufferPartCpy+0x2b>
c0002a8b:	8b 55 0c             	mov    0xc(%ebp),%edx
c0002a8e:	8b 45 30             	mov    0x30(%ebp),%eax
c0002a91:	89 d1                	mov    %edx,%ecx
c0002a93:	29 c1                	sub    %eax,%ecx
c0002a95:	89 c8                	mov    %ecx,%eax
c0002a97:	eb 03                	jmp    c0002a9c <imageBufferPartCpy+0x2e>
c0002a99:	8b 45 28             	mov    0x28(%ebp),%eax
c0002a9c:	89 45 e8             	mov    %eax,-0x18(%ebp)
c0002a9f:	8b 55 10             	mov    0x10(%ebp),%edx
c0002aa2:	8b 45 34             	mov    0x34(%ebp),%eax
c0002aa5:	8b 4d 2c             	mov    0x2c(%ebp),%ecx
c0002aa8:	8d 04 01             	lea    (%ecx,%eax,1),%eax
c0002aab:	39 c2                	cmp    %eax,%edx
c0002aad:	77 0e                	ja     c0002abd <imageBufferPartCpy+0x4f>
c0002aaf:	8b 55 10             	mov    0x10(%ebp),%edx
c0002ab2:	8b 45 34             	mov    0x34(%ebp),%eax
c0002ab5:	89 d1                	mov    %edx,%ecx
c0002ab7:	29 c1                	sub    %eax,%ecx
c0002ab9:	89 c8                	mov    %ecx,%eax
c0002abb:	eb 03                	jmp    c0002ac0 <imageBufferPartCpy+0x52>
c0002abd:	8b 45 2c             	mov    0x2c(%ebp),%eax
c0002ac0:	89 45 ec             	mov    %eax,-0x14(%ebp)
c0002ac3:	8b 45 08             	mov    0x8(%ebp),%eax
c0002ac6:	89 c2                	mov    %eax,%edx
c0002ac8:	8b 4d 0c             	mov    0xc(%ebp),%ecx
c0002acb:	8b 45 34             	mov    0x34(%ebp),%eax
c0002ace:	0f af c1             	imul   %ecx,%eax
c0002ad1:	01 c2                	add    %eax,%edx
c0002ad3:	8b 45 30             	mov    0x30(%ebp),%eax
c0002ad6:	8d 04 02             	lea    (%edx,%eax,1),%eax
c0002ad9:	89 45 f0             	mov    %eax,-0x10(%ebp)
c0002adc:	8b 45 14             	mov    0x14(%ebp),%eax
c0002adf:	03 45 20             	add    0x20(%ebp),%eax
c0002ae2:	89 c2                	mov    %eax,%edx
c0002ae4:	8b 4d 18             	mov    0x18(%ebp),%ecx
c0002ae7:	8b 45 24             	mov    0x24(%ebp),%eax
c0002aea:	0f af c1             	imul   %ecx,%eax
c0002aed:	8d 04 02             	lea    (%edx,%eax,1),%eax
c0002af0:	89 45 f4             	mov    %eax,-0xc(%ebp)
c0002af3:	8b 55 18             	mov    0x18(%ebp),%edx
c0002af6:	8b 45 20             	mov    0x20(%ebp),%eax
c0002af9:	8b 4d e8             	mov    -0x18(%ebp),%ecx
c0002afc:	8d 04 01             	lea    (%ecx,%eax,1),%eax
c0002aff:	39 c2                	cmp    %eax,%edx
c0002b01:	77 0e                	ja     c0002b11 <imageBufferPartCpy+0xa3>
c0002b03:	8b 55 18             	mov    0x18(%ebp),%edx
c0002b06:	8b 45 20             	mov    0x20(%ebp),%eax
c0002b09:	89 d1                	mov    %edx,%ecx
c0002b0b:	29 c1                	sub    %eax,%ecx
c0002b0d:	89 c8                	mov    %ecx,%eax
c0002b0f:	eb 03                	jmp    c0002b14 <imageBufferPartCpy+0xa6>
c0002b11:	8b 45 e8             	mov    -0x18(%ebp),%eax
c0002b14:	89 45 e8             	mov    %eax,-0x18(%ebp)
c0002b17:	8b 55 1c             	mov    0x1c(%ebp),%edx
c0002b1a:	8b 45 24             	mov    0x24(%ebp),%eax
c0002b1d:	8b 4d ec             	mov    -0x14(%ebp),%ecx
c0002b20:	8d 04 01             	lea    (%ecx,%eax,1),%eax
c0002b23:	39 c2                	cmp    %eax,%edx
c0002b25:	77 0e                	ja     c0002b35 <imageBufferPartCpy+0xc7>
c0002b27:	8b 55 1c             	mov    0x1c(%ebp),%edx
c0002b2a:	8b 45 24             	mov    0x24(%ebp),%eax
c0002b2d:	89 d1                	mov    %edx,%ecx
c0002b2f:	29 c1                	sub    %eax,%ecx
c0002b31:	89 c8                	mov    %ecx,%eax
c0002b33:	eb 03                	jmp    c0002b38 <imageBufferPartCpy+0xca>
c0002b35:	8b 45 ec             	mov    -0x14(%ebp),%eax
c0002b38:	89 45 ec             	mov    %eax,-0x14(%ebp)
c0002b3b:	eb 35                	jmp    c0002b72 <imageBufferPartCpy+0x104>
c0002b3d:	8b 4d e8             	mov    -0x18(%ebp),%ecx
c0002b40:	8b 55 f0             	mov    -0x10(%ebp),%edx
c0002b43:	8b 45 f4             	mov    -0xc(%ebp),%eax
c0002b46:	89 4c 24 08          	mov    %ecx,0x8(%esp)
c0002b4a:	89 54 24 04          	mov    %edx,0x4(%esp)
c0002b4e:	89 04 24             	mov    %eax,(%esp)
c0002b51:	e8 53 20 00 00       	call   c0004ba9 <memcpy>
c0002b56:	8b 55 0c             	mov    0xc(%ebp),%edx
c0002b59:	8b 45 f0             	mov    -0x10(%ebp),%eax
c0002b5c:	8d 04 02             	lea    (%edx,%eax,1),%eax
c0002b5f:	89 45 f0             	mov    %eax,-0x10(%ebp)
c0002b62:	8b 55 18             	mov    0x18(%ebp),%edx
c0002b65:	8b 45 f4             	mov    -0xc(%ebp),%eax
c0002b68:	8d 04 02             	lea    (%edx,%eax,1),%eax
c0002b6b:	89 45 f4             	mov    %eax,-0xc(%ebp)
c0002b6e:	83 45 e4 01          	addl   $0x1,-0x1c(%ebp)
c0002b72:	8b 45 e4             	mov    -0x1c(%ebp),%eax
c0002b75:	3b 45 ec             	cmp    -0x14(%ebp),%eax
c0002b78:	7c c3                	jl     c0002b3d <imageBufferPartCpy+0xcf>
c0002b7a:	c9                   	leave  
c0002b7b:	c3                   	ret    

c0002b7c <drawBuffer>:
c0002b7c:	55                   	push   %ebp
c0002b7d:	89 e5                	mov    %esp,%ebp
c0002b7f:	83 ec 38             	sub    $0x38,%esp
c0002b82:	8d 45 ec             	lea    -0x14(%ebp),%eax
c0002b85:	89 04 24             	mov    %eax,(%esp)
c0002b88:	e8 5f 0c 00 00       	call   c00037ec <getScreenBuf>
c0002b8d:	83 ec 04             	sub    $0x4,%esp
c0002b90:	8b 45 18             	mov    0x18(%ebp),%eax
c0002b93:	89 44 24 1c          	mov    %eax,0x1c(%esp)
c0002b97:	8b 45 14             	mov    0x14(%ebp),%eax
c0002b9a:	89 44 24 18          	mov    %eax,0x18(%esp)
c0002b9e:	8b 45 ec             	mov    -0x14(%ebp),%eax
c0002ba1:	89 44 24 0c          	mov    %eax,0xc(%esp)
c0002ba5:	8b 45 f0             	mov    -0x10(%ebp),%eax
c0002ba8:	89 44 24 10          	mov    %eax,0x10(%esp)
c0002bac:	8b 45 f4             	mov    -0xc(%ebp),%eax
c0002baf:	89 44 24 14          	mov    %eax,0x14(%esp)
c0002bb3:	8b 45 08             	mov    0x8(%ebp),%eax
c0002bb6:	89 04 24             	mov    %eax,(%esp)
c0002bb9:	8b 45 0c             	mov    0xc(%ebp),%eax
c0002bbc:	89 44 24 04          	mov    %eax,0x4(%esp)
c0002bc0:	8b 45 10             	mov    0x10(%ebp),%eax
c0002bc3:	89 44 24 08          	mov    %eax,0x8(%esp)
c0002bc7:	e8 f8 fd ff ff       	call   c00029c4 <imageBufferCpy>
c0002bcc:	c9                   	leave  
c0002bcd:	c3                   	ret    

c0002bce <drawBufferPart>:
c0002bce:	55                   	push   %ebp
c0002bcf:	89 e5                	mov    %esp,%ebp
c0002bd1:	83 ec 48             	sub    $0x48,%esp
c0002bd4:	8d 45 ec             	lea    -0x14(%ebp),%eax
c0002bd7:	89 04 24             	mov    %eax,(%esp)
c0002bda:	e8 0d 0c 00 00       	call   c00037ec <getScreenBuf>
c0002bdf:	83 ec 04             	sub    $0x4,%esp
c0002be2:	8b 45 28             	mov    0x28(%ebp),%eax
c0002be5:	89 44 24 2c          	mov    %eax,0x2c(%esp)
c0002be9:	8b 45 24             	mov    0x24(%ebp),%eax
c0002bec:	89 44 24 28          	mov    %eax,0x28(%esp)
c0002bf0:	8b 45 20             	mov    0x20(%ebp),%eax
c0002bf3:	89 44 24 24          	mov    %eax,0x24(%esp)
c0002bf7:	8b 45 1c             	mov    0x1c(%ebp),%eax
c0002bfa:	89 44 24 20          	mov    %eax,0x20(%esp)
c0002bfe:	8b 45 18             	mov    0x18(%ebp),%eax
c0002c01:	89 44 24 1c          	mov    %eax,0x1c(%esp)
c0002c05:	8b 45 14             	mov    0x14(%ebp),%eax
c0002c08:	89 44 24 18          	mov    %eax,0x18(%esp)
c0002c0c:	8b 45 ec             	mov    -0x14(%ebp),%eax
c0002c0f:	89 44 24 0c          	mov    %eax,0xc(%esp)
c0002c13:	8b 45 f0             	mov    -0x10(%ebp),%eax
c0002c16:	89 44 24 10          	mov    %eax,0x10(%esp)
c0002c1a:	8b 45 f4             	mov    -0xc(%ebp),%eax
c0002c1d:	89 44 24 14          	mov    %eax,0x14(%esp)
c0002c21:	8b 45 08             	mov    0x8(%ebp),%eax
c0002c24:	89 04 24             	mov    %eax,(%esp)
c0002c27:	8b 45 0c             	mov    0xc(%ebp),%eax
c0002c2a:	89 44 24 04          	mov    %eax,0x4(%esp)
c0002c2e:	8b 45 10             	mov    0x10(%ebp),%eax
c0002c31:	89 44 24 08          	mov    %eax,0x8(%esp)
c0002c35:	e8 34 fe ff ff       	call   c0002a6e <imageBufferPartCpy>
c0002c3a:	c9                   	leave  
c0002c3b:	c3                   	ret    

c0002c3c <newImageBuffer>:
c0002c3c:	55                   	push   %ebp
c0002c3d:	89 e5                	mov    %esp,%ebp
c0002c3f:	56                   	push   %esi
c0002c40:	53                   	push   %ebx
c0002c41:	83 ec 20             	sub    $0x20,%esp
c0002c44:	8b 5d 08             	mov    0x8(%ebp),%ebx
c0002c47:	8b 45 0c             	mov    0xc(%ebp),%eax
c0002c4a:	0f af 45 10          	imul   0x10(%ebp),%eax
c0002c4e:	89 c6                	mov    %eax,%esi
c0002c50:	e8 84 0b 00 00       	call   c00037d9 <getScreenDepth>
c0002c55:	0f af c6             	imul   %esi,%eax
c0002c58:	c7 44 24 04 00 00 00 	movl   $0x0,0x4(%esp)
c0002c5f:	00 
c0002c60:	89 04 24             	mov    %eax,(%esp)
c0002c63:	e8 78 15 00 00       	call   c00041e0 <alloc>
c0002c68:	89 c1                	mov    %eax,%ecx
c0002c6a:	8b 55 0c             	mov    0xc(%ebp),%edx
c0002c6d:	8b 45 10             	mov    0x10(%ebp),%eax
c0002c70:	89 4d ec             	mov    %ecx,-0x14(%ebp)
c0002c73:	89 55 f0             	mov    %edx,-0x10(%ebp)
c0002c76:	89 45 f4             	mov    %eax,-0xc(%ebp)
c0002c79:	8b 45 0c             	mov    0xc(%ebp),%eax
c0002c7c:	0f af 45 10          	imul   0x10(%ebp),%eax
c0002c80:	89 c6                	mov    %eax,%esi
c0002c82:	e8 52 0b 00 00       	call   c00037d9 <getScreenDepth>
c0002c87:	89 f2                	mov    %esi,%edx
c0002c89:	0f af d0             	imul   %eax,%edx
c0002c8c:	8b 45 ec             	mov    -0x14(%ebp),%eax
c0002c8f:	89 54 24 08          	mov    %edx,0x8(%esp)
c0002c93:	c7 44 24 04 00 00 00 	movl   $0x0,0x4(%esp)
c0002c9a:	00 
c0002c9b:	89 04 24             	mov    %eax,(%esp)
c0002c9e:	e8 7b 1e 00 00       	call   c0004b1e <memset>
c0002ca3:	8b 45 ec             	mov    -0x14(%ebp),%eax
c0002ca6:	89 03                	mov    %eax,(%ebx)
c0002ca8:	8b 45 f0             	mov    -0x10(%ebp),%eax
c0002cab:	89 43 04             	mov    %eax,0x4(%ebx)
c0002cae:	8b 45 f4             	mov    -0xc(%ebp),%eax
c0002cb1:	89 43 08             	mov    %eax,0x8(%ebx)
c0002cb4:	89 d8                	mov    %ebx,%eax
c0002cb6:	83 c4 20             	add    $0x20,%esp
c0002cb9:	5b                   	pop    %ebx
c0002cba:	5e                   	pop    %esi
c0002cbb:	5d                   	pop    %ebp
c0002cbc:	c2 04 00             	ret    $0x4
c0002cbf:	90                   	nop

c0002cc0 <textInitG>:
c0002cc0:	55                   	push   %ebp
c0002cc1:	89 e5                	mov    %esp,%ebp
c0002cc3:	83 ec 18             	sub    $0x18,%esp
c0002cc6:	c7 44 24 04 00 00 00 	movl   $0x0,0x4(%esp)
c0002ccd:	00 
c0002cce:	c7 04 24 00 01 00 00 	movl   $0x100,(%esp)
c0002cd5:	e8 06 15 00 00       	call   c00041e0 <alloc>
c0002cda:	a3 24 d0 01 c0       	mov    %eax,0xc001d024
c0002cdf:	a1 24 d0 01 c0       	mov    0xc001d024,%eax
c0002ce4:	c7 44 24 08 00 01 00 	movl   $0x100,0x8(%esp)
c0002ceb:	00 
c0002cec:	c7 44 24 04 00 00 00 	movl   $0x0,0x4(%esp)
c0002cf3:	00 
c0002cf4:	89 04 24             	mov    %eax,(%esp)
c0002cf7:	e8 22 1e 00 00       	call   c0004b1e <memset>
c0002cfc:	b8 01 00 00 00       	mov    $0x1,%eax
c0002d01:	c9                   	leave  
c0002d02:	c3                   	ret    

c0002d03 <getCharBuffer>:
c0002d03:	55                   	push   %ebp
c0002d04:	89 e5                	mov    %esp,%ebp
c0002d06:	53                   	push   %ebx
c0002d07:	83 ec 44             	sub    $0x44,%esp
c0002d0a:	8b 5d 08             	mov    0x8(%ebp),%ebx
c0002d0d:	8b 45 0c             	mov    0xc(%ebp),%eax
c0002d10:	88 45 d4             	mov    %al,-0x2c(%ebp)
c0002d13:	e8 c1 0a 00 00       	call   c00037d9 <getScreenDepth>
c0002d18:	c1 e0 06             	shl    $0x6,%eax
c0002d1b:	c7 44 24 04 00 00 00 	movl   $0x0,0x4(%esp)
c0002d22:	00 
c0002d23:	89 04 24             	mov    %eax,(%esp)
c0002d26:	e8 b5 14 00 00       	call   c00041e0 <alloc>
c0002d2b:	89 45 e4             	mov    %eax,-0x1c(%ebp)
c0002d2e:	c7 45 e8 08 00 00 00 	movl   $0x8,-0x18(%ebp)
c0002d35:	c7 45 ec 08 00 00 00 	movl   $0x8,-0x14(%ebp)
c0002d3c:	8b 45 e4             	mov    -0x1c(%ebp),%eax
c0002d3f:	89 45 f0             	mov    %eax,-0x10(%ebp)
c0002d42:	c7 45 f4 00 00 00 00 	movl   $0x0,-0xc(%ebp)
c0002d49:	eb 42                	jmp    c0002d8d <getCharBuffer+0x8a>
c0002d4b:	e8 89 0a 00 00       	call   c00037d9 <getScreenDepth>
c0002d50:	89 c2                	mov    %eax,%edx
c0002d52:	8b 0d 24 d0 01 c0    	mov    0xc001d024,%ecx
c0002d58:	0f be 45 d4          	movsbl -0x2c(%ebp),%eax
c0002d5c:	8d 04 01             	lea    (%ecx,%eax,1),%eax
c0002d5f:	0f b6 00             	movzbl (%eax),%eax
c0002d62:	84 c0                	test   %al,%al
c0002d64:	74 05                	je     c0002d6b <getCharBuffer+0x68>
c0002d66:	8b 45 14             	mov    0x14(%ebp),%eax
c0002d69:	eb 03                	jmp    c0002d6e <getCharBuffer+0x6b>
c0002d6b:	8b 45 10             	mov    0x10(%ebp),%eax
c0002d6e:	89 54 24 08          	mov    %edx,0x8(%esp)
c0002d72:	89 44 24 04          	mov    %eax,0x4(%esp)
c0002d76:	8b 45 f0             	mov    -0x10(%ebp),%eax
c0002d79:	89 04 24             	mov    %eax,(%esp)
c0002d7c:	e8 9d 1d 00 00       	call   c0004b1e <memset>
c0002d81:	e8 53 0a 00 00       	call   c00037d9 <getScreenDepth>
c0002d86:	01 45 f0             	add    %eax,-0x10(%ebp)
c0002d89:	83 45 f4 01          	addl   $0x1,-0xc(%ebp)
c0002d8d:	83 7d f4 3f          	cmpl   $0x3f,-0xc(%ebp)
c0002d91:	7e b8                	jle    c0002d4b <getCharBuffer+0x48>
c0002d93:	8b 45 e4             	mov    -0x1c(%ebp),%eax
c0002d96:	89 03                	mov    %eax,(%ebx)
c0002d98:	8b 45 e8             	mov    -0x18(%ebp),%eax
c0002d9b:	89 43 04             	mov    %eax,0x4(%ebx)
c0002d9e:	8b 45 ec             	mov    -0x14(%ebp),%eax
c0002da1:	89 43 08             	mov    %eax,0x8(%ebx)
c0002da4:	89 d8                	mov    %ebx,%eax
c0002da6:	83 c4 44             	add    $0x44,%esp
c0002da9:	5b                   	pop    %ebx
c0002daa:	5d                   	pop    %ebp
c0002dab:	c2 04 00             	ret    $0x4

c0002dae <printCharToBuffer>:
c0002dae:	55                   	push   %ebp
c0002daf:	89 e5                	mov    %esp,%ebp
c0002db1:	83 ec 48             	sub    $0x48,%esp
c0002db4:	8b 45 14             	mov    0x14(%ebp),%eax
c0002db7:	88 45 e4             	mov    %al,-0x1c(%ebp)
c0002dba:	0f be 55 e4          	movsbl -0x1c(%ebp),%edx
c0002dbe:	8d 45 ec             	lea    -0x14(%ebp),%eax
c0002dc1:	8b 4d 24             	mov    0x24(%ebp),%ecx
c0002dc4:	89 4c 24 0c          	mov    %ecx,0xc(%esp)
c0002dc8:	8b 4d 20             	mov    0x20(%ebp),%ecx
c0002dcb:	89 4c 24 08          	mov    %ecx,0x8(%esp)
c0002dcf:	89 54 24 04          	mov    %edx,0x4(%esp)
c0002dd3:	89 04 24             	mov    %eax,(%esp)
c0002dd6:	e8 28 ff ff ff       	call   c0002d03 <getCharBuffer>
c0002ddb:	83 ec 04             	sub    $0x4,%esp
c0002dde:	8b 55 1c             	mov    0x1c(%ebp),%edx
c0002de1:	8b 45 18             	mov    0x18(%ebp),%eax
c0002de4:	89 54 24 1c          	mov    %edx,0x1c(%esp)
c0002de8:	89 44 24 18          	mov    %eax,0x18(%esp)
c0002dec:	8b 45 08             	mov    0x8(%ebp),%eax
c0002def:	89 44 24 0c          	mov    %eax,0xc(%esp)
c0002df3:	8b 45 0c             	mov    0xc(%ebp),%eax
c0002df6:	89 44 24 10          	mov    %eax,0x10(%esp)
c0002dfa:	8b 45 10             	mov    0x10(%ebp),%eax
c0002dfd:	89 44 24 14          	mov    %eax,0x14(%esp)
c0002e01:	8b 45 ec             	mov    -0x14(%ebp),%eax
c0002e04:	89 04 24             	mov    %eax,(%esp)
c0002e07:	8b 45 f0             	mov    -0x10(%ebp),%eax
c0002e0a:	89 44 24 04          	mov    %eax,0x4(%esp)
c0002e0e:	8b 45 f4             	mov    -0xc(%ebp),%eax
c0002e11:	89 44 24 08          	mov    %eax,0x8(%esp)
c0002e15:	e8 aa fb ff ff       	call   c00029c4 <imageBufferCpy>
c0002e1a:	8b 45 ec             	mov    -0x14(%ebp),%eax
c0002e1d:	89 04 24             	mov    %eax,(%esp)
c0002e20:	e8 ba 15 00 00       	call   c00043df <free>
c0002e25:	c9                   	leave  
c0002e26:	c3                   	ret    

c0002e27 <printStringToBuffer>:
c0002e27:	55                   	push   %ebp
c0002e28:	89 e5                	mov    %esp,%ebp
c0002e2a:	83 ec 48             	sub    $0x48,%esp
c0002e2d:	c7 45 e4 00 00 00 00 	movl   $0x0,-0x1c(%ebp)
c0002e34:	c7 45 e8 00 00 00 00 	movl   $0x0,-0x18(%ebp)
c0002e3b:	8b 45 0c             	mov    0xc(%ebp),%eax
c0002e3e:	2b 45 18             	sub    0x18(%ebp),%eax
c0002e41:	c1 e8 03             	shr    $0x3,%eax
c0002e44:	89 45 ec             	mov    %eax,-0x14(%ebp)
c0002e47:	8b 45 14             	mov    0x14(%ebp),%eax
c0002e4a:	89 04 24             	mov    %eax,(%esp)
c0002e4d:	e8 3f 1e 00 00       	call   c0004c91 <strlen>
c0002e52:	89 45 f0             	mov    %eax,-0x10(%ebp)
c0002e55:	c7 45 f4 00 00 00 00 	movl   $0x0,-0xc(%ebp)
c0002e5c:	e9 d0 00 00 00       	jmp    c0002f31 <printStringToBuffer+0x10a>
c0002e61:	8b 45 e4             	mov    -0x1c(%ebp),%eax
c0002e64:	8b 55 f0             	mov    -0x10(%ebp),%edx
c0002e67:	89 d1                	mov    %edx,%ecx
c0002e69:	29 c1                	sub    %eax,%ecx
c0002e6b:	89 c8                	mov    %ecx,%eax
c0002e6d:	3b 45 ec             	cmp    -0x14(%ebp),%eax
c0002e70:	7e 30                	jle    c0002ea2 <printStringToBuffer+0x7b>
c0002e72:	8b 45 ec             	mov    -0x14(%ebp),%eax
c0002e75:	89 45 f4             	mov    %eax,-0xc(%ebp)
c0002e78:	eb 11                	jmp    c0002e8b <printStringToBuffer+0x64>
c0002e7a:	8b 45 f4             	mov    -0xc(%ebp),%eax
c0002e7d:	03 45 14             	add    0x14(%ebp),%eax
c0002e80:	0f b6 00             	movzbl (%eax),%eax
c0002e83:	3c 20                	cmp    $0x20,%al
c0002e85:	74 0c                	je     c0002e93 <printStringToBuffer+0x6c>
c0002e87:	83 6d f4 01          	subl   $0x1,-0xc(%ebp)
c0002e8b:	83 7d f4 00          	cmpl   $0x0,-0xc(%ebp)
c0002e8f:	7f e9                	jg     c0002e7a <printStringToBuffer+0x53>
c0002e91:	eb 01                	jmp    c0002e94 <printStringToBuffer+0x6d>
c0002e93:	90                   	nop
c0002e94:	83 7d f4 00          	cmpl   $0x0,-0xc(%ebp)
c0002e98:	75 11                	jne    c0002eab <printStringToBuffer+0x84>
c0002e9a:	8b 45 ec             	mov    -0x14(%ebp),%eax
c0002e9d:	89 45 f4             	mov    %eax,-0xc(%ebp)
c0002ea0:	eb 0a                	jmp    c0002eac <printStringToBuffer+0x85>
c0002ea2:	c7 45 f4 00 00 00 00 	movl   $0x0,-0xc(%ebp)
c0002ea9:	eb 01                	jmp    c0002eac <printStringToBuffer+0x85>
c0002eab:	90                   	nop
c0002eac:	c7 45 e8 00 00 00 00 	movl   $0x0,-0x18(%ebp)
c0002eb3:	eb 68                	jmp    c0002f1d <printStringToBuffer+0xf6>
c0002eb5:	8b 45 e4             	mov    -0x1c(%ebp),%eax
c0002eb8:	03 45 14             	add    0x14(%ebp),%eax
c0002ebb:	0f b6 00             	movzbl (%eax),%eax
c0002ebe:	3c 0a                	cmp    $0xa,%al
c0002ec0:	75 06                	jne    c0002ec8 <printStringToBuffer+0xa1>
c0002ec2:	83 45 e4 01          	addl   $0x1,-0x1c(%ebp)
c0002ec6:	eb 5d                	jmp    c0002f25 <printStringToBuffer+0xfe>
c0002ec8:	8b 45 e8             	mov    -0x18(%ebp),%eax
c0002ecb:	c1 e0 03             	shl    $0x3,%eax
c0002ece:	89 c2                	mov    %eax,%edx
c0002ed0:	03 55 18             	add    0x18(%ebp),%edx
c0002ed3:	8b 45 e4             	mov    -0x1c(%ebp),%eax
c0002ed6:	03 45 14             	add    0x14(%ebp),%eax
c0002ed9:	0f b6 00             	movzbl (%eax),%eax
c0002edc:	0f be c0             	movsbl %al,%eax
c0002edf:	8b 4d 24             	mov    0x24(%ebp),%ecx
c0002ee2:	89 4c 24 1c          	mov    %ecx,0x1c(%esp)
c0002ee6:	8b 4d 20             	mov    0x20(%ebp),%ecx
c0002ee9:	89 4c 24 18          	mov    %ecx,0x18(%esp)
c0002eed:	8b 4d 1c             	mov    0x1c(%ebp),%ecx
c0002ef0:	89 4c 24 14          	mov    %ecx,0x14(%esp)
c0002ef4:	89 54 24 10          	mov    %edx,0x10(%esp)
c0002ef8:	89 44 24 0c          	mov    %eax,0xc(%esp)
c0002efc:	8b 45 08             	mov    0x8(%ebp),%eax
c0002eff:	89 04 24             	mov    %eax,(%esp)
c0002f02:	8b 45 0c             	mov    0xc(%ebp),%eax
c0002f05:	89 44 24 04          	mov    %eax,0x4(%esp)
c0002f09:	8b 45 10             	mov    0x10(%ebp),%eax
c0002f0c:	89 44 24 08          	mov    %eax,0x8(%esp)
c0002f10:	e8 99 fe ff ff       	call   c0002dae <printCharToBuffer>
c0002f15:	83 45 e4 01          	addl   $0x1,-0x1c(%ebp)
c0002f19:	83 45 e8 01          	addl   $0x1,-0x18(%ebp)
c0002f1d:	8b 45 e8             	mov    -0x18(%ebp),%eax
c0002f20:	3b 45 f4             	cmp    -0xc(%ebp),%eax
c0002f23:	7c 90                	jl     c0002eb5 <printStringToBuffer+0x8e>
c0002f25:	83 45 1c 08          	addl   $0x8,0x1c(%ebp)
c0002f29:	8b 45 10             	mov    0x10(%ebp),%eax
c0002f2c:	3b 45 1c             	cmp    0x1c(%ebp),%eax
c0002f2f:	72 0e                	jb     c0002f3f <printStringToBuffer+0x118>
c0002f31:	8b 45 e4             	mov    -0x1c(%ebp),%eax
c0002f34:	3b 45 f0             	cmp    -0x10(%ebp),%eax
c0002f37:	0f 8c 24 ff ff ff    	jl     c0002e61 <printStringToBuffer+0x3a>
c0002f3d:	eb 01                	jmp    c0002f40 <printStringToBuffer+0x119>
c0002f3f:	90                   	nop
c0002f40:	c9                   	leave  
c0002f41:	c3                   	ret    

c0002f42 <drawChar>:
c0002f42:	55                   	push   %ebp
c0002f43:	89 e5                	mov    %esp,%ebp
c0002f45:	56                   	push   %esi
c0002f46:	53                   	push   %ebx
c0002f47:	83 ec 40             	sub    $0x40,%esp
c0002f4a:	8b 45 10             	mov    0x10(%ebp),%eax
c0002f4d:	88 45 e4             	mov    %al,-0x1c(%ebp)
c0002f50:	8b 75 0c             	mov    0xc(%ebp),%esi
c0002f53:	8b 5d 08             	mov    0x8(%ebp),%ebx
c0002f56:	0f be 55 e4          	movsbl -0x1c(%ebp),%edx
c0002f5a:	8d 45 ec             	lea    -0x14(%ebp),%eax
c0002f5d:	8b 4d 18             	mov    0x18(%ebp),%ecx
c0002f60:	89 4c 24 0c          	mov    %ecx,0xc(%esp)
c0002f64:	8b 4d 14             	mov    0x14(%ebp),%ecx
c0002f67:	89 4c 24 08          	mov    %ecx,0x8(%esp)
c0002f6b:	89 54 24 04          	mov    %edx,0x4(%esp)
c0002f6f:	89 04 24             	mov    %eax,(%esp)
c0002f72:	e8 8c fd ff ff       	call   c0002d03 <getCharBuffer>
c0002f77:	83 ec 04             	sub    $0x4,%esp
c0002f7a:	89 74 24 10          	mov    %esi,0x10(%esp)
c0002f7e:	89 5c 24 0c          	mov    %ebx,0xc(%esp)
c0002f82:	8b 45 ec             	mov    -0x14(%ebp),%eax
c0002f85:	89 04 24             	mov    %eax,(%esp)
c0002f88:	8b 45 f0             	mov    -0x10(%ebp),%eax
c0002f8b:	89 44 24 04          	mov    %eax,0x4(%esp)
c0002f8f:	8b 45 f4             	mov    -0xc(%ebp),%eax
c0002f92:	89 44 24 08          	mov    %eax,0x8(%esp)
c0002f96:	e8 e1 fb ff ff       	call   c0002b7c <drawBuffer>
c0002f9b:	8d 65 f8             	lea    -0x8(%ebp),%esp
c0002f9e:	83 c4 00             	add    $0x0,%esp
c0002fa1:	5b                   	pop    %ebx
c0002fa2:	5e                   	pop    %esi
c0002fa3:	5d                   	pop    %ebp
c0002fa4:	c3                   	ret    

c0002fa5 <drawString>:
c0002fa5:	55                   	push   %ebp
c0002fa6:	89 e5                	mov    %esp,%ebp
c0002fa8:	83 ec 38             	sub    $0x38,%esp
c0002fab:	8d 45 ec             	lea    -0x14(%ebp),%eax
c0002fae:	89 04 24             	mov    %eax,(%esp)
c0002fb1:	e8 36 08 00 00       	call   c00037ec <getScreenBuf>
c0002fb6:	83 ec 04             	sub    $0x4,%esp
c0002fb9:	8b 45 18             	mov    0x18(%ebp),%eax
c0002fbc:	89 44 24 1c          	mov    %eax,0x1c(%esp)
c0002fc0:	8b 45 14             	mov    0x14(%ebp),%eax
c0002fc3:	89 44 24 18          	mov    %eax,0x18(%esp)
c0002fc7:	8b 45 10             	mov    0x10(%ebp),%eax
c0002fca:	89 44 24 14          	mov    %eax,0x14(%esp)
c0002fce:	8b 45 0c             	mov    0xc(%ebp),%eax
c0002fd1:	89 44 24 10          	mov    %eax,0x10(%esp)
c0002fd5:	8b 45 08             	mov    0x8(%ebp),%eax
c0002fd8:	89 44 24 0c          	mov    %eax,0xc(%esp)
c0002fdc:	8b 45 ec             	mov    -0x14(%ebp),%eax
c0002fdf:	89 04 24             	mov    %eax,(%esp)
c0002fe2:	8b 45 f0             	mov    -0x10(%ebp),%eax
c0002fe5:	89 44 24 04          	mov    %eax,0x4(%esp)
c0002fe9:	8b 45 f4             	mov    -0xc(%ebp),%eax
c0002fec:	89 44 24 08          	mov    %eax,0x8(%esp)
c0002ff0:	e8 32 fe ff ff       	call   c0002e27 <printStringToBuffer>
c0002ff5:	c9                   	leave  
c0002ff6:	c3                   	ret    
c0002ff7:	90                   	nop

c0002ff8 <wait>:
c0002ff8:	55                   	push   %ebp
c0002ff9:	89 e5                	mov    %esp,%ebp
c0002ffb:	83 ec 10             	sub    $0x10,%esp
c0002ffe:	c7 45 fc 00 00 00 00 	movl   $0x0,-0x4(%ebp)
c0003005:	eb 04                	jmp    c000300b <wait+0x13>
c0003007:	83 45 fc 01          	addl   $0x1,-0x4(%ebp)
c000300b:	81 7d fc fe ff ff 1f 	cmpl   $0x1ffffffe,-0x4(%ebp)
c0003012:	7e f3                	jle    c0003007 <wait+0xf>
c0003014:	c9                   	leave  
c0003015:	c3                   	ret    

c0003016 <vgaInit>:
c0003016:	55                   	push   %ebp
c0003017:	89 e5                	mov    %esp,%ebp
c0003019:	83 ec 28             	sub    $0x28,%esp
c000301c:	c7 45 f4 00 00 00 00 	movl   $0x0,-0xc(%ebp)
c0003023:	c7 44 24 04 00 00 00 	movl   $0x0,0x4(%esp)
c000302a:	00 
c000302b:	c7 04 24 01 00 00 00 	movl   $0x1,(%esp)
c0003032:	e8 a9 11 00 00       	call   c00041e0 <alloc>
c0003037:	a3 20 d0 01 c0       	mov    %eax,0xc001d020
c000303c:	8b 45 f4             	mov    -0xc(%ebp),%eax
c000303f:	89 04 24             	mov    %eax,(%esp)
c0003042:	e8 34 00 00 00       	call   c000307b <setVideoMode>
c0003047:	83 f8 ff             	cmp    $0xffffffff,%eax
c000304a:	75 18                	jne    c0003064 <vgaInit+0x4e>
c000304c:	c7 04 24 00 00 00 00 	movl   $0x0,(%esp)
c0003053:	e8 23 00 00 00       	call   c000307b <setVideoMode>
c0003058:	83 f8 ff             	cmp    $0xffffffff,%eax
c000305b:	75 07                	jne    c0003064 <vgaInit+0x4e>
c000305d:	b8 00 00 00 00       	mov    $0x0,%eax
c0003062:	eb 15                	jmp    c0003079 <vgaInit+0x63>
c0003064:	e8 57 fc ff ff       	call   c0002cc0 <textInitG>
c0003069:	85 c0                	test   %eax,%eax
c000306b:	75 07                	jne    c0003074 <vgaInit+0x5e>
c000306d:	b8 00 00 00 00       	mov    $0x0,%eax
c0003072:	eb 05                	jmp    c0003079 <vgaInit+0x63>
c0003074:	b8 01 00 00 00       	mov    $0x1,%eax
c0003079:	c9                   	leave  
c000307a:	c3                   	ret    

c000307b <setVideoMode>:
c000307b:	55                   	push   %ebp
c000307c:	89 e5                	mov    %esp,%ebp
c000307e:	53                   	push   %ebx
c000307f:	83 ec 14             	sub    $0x14,%esp
c0003082:	a1 20 d0 01 c0       	mov    0xc001d020,%eax
c0003087:	89 04 24             	mov    %eax,(%esp)
c000308a:	e8 50 13 00 00       	call   c00043df <free>
c000308f:	8b 45 08             	mov    0x8(%ebp),%eax
c0003092:	c1 e0 04             	shl    $0x4,%eax
c0003095:	8b 90 c0 77 00 c0    	mov    -0x3fff8840(%eax),%edx
c000309b:	8b 45 08             	mov    0x8(%ebp),%eax
c000309e:	c1 e0 04             	shl    $0x4,%eax
c00030a1:	8b 80 c4 77 00 c0    	mov    -0x3fff883c(%eax),%eax
c00030a7:	0f af d0             	imul   %eax,%edx
c00030aa:	8b 45 08             	mov    0x8(%ebp),%eax
c00030ad:	c1 e0 04             	shl    $0x4,%eax
c00030b0:	8b 80 c8 77 00 c0    	mov    -0x3fff8838(%eax),%eax
c00030b6:	0f af c2             	imul   %edx,%eax
c00030b9:	c7 44 24 04 00 00 00 	movl   $0x0,0x4(%esp)
c00030c0:	00 
c00030c1:	89 04 24             	mov    %eax,(%esp)
c00030c4:	e8 17 11 00 00       	call   c00041e0 <alloc>
c00030c9:	a3 20 d0 01 c0       	mov    %eax,0xc001d020
c00030ce:	a1 20 d0 01 c0       	mov    0xc001d020,%eax
c00030d3:	85 c0                	test   %eax,%eax
c00030d5:	75 50                	jne    c0003127 <setVideoMode+0xac>
c00030d7:	c7 05 20 d0 01 c0 00 	movl   $0xa0000,0xc001d020
c00030de:	00 0a 00 
c00030e1:	8b 45 08             	mov    0x8(%ebp),%eax
c00030e4:	c1 e0 04             	shl    $0x4,%eax
c00030e7:	8b 90 c0 77 00 c0    	mov    -0x3fff8840(%eax),%edx
c00030ed:	8b 45 08             	mov    0x8(%ebp),%eax
c00030f0:	c1 e0 04             	shl    $0x4,%eax
c00030f3:	8b 80 c4 77 00 c0    	mov    -0x3fff883c(%eax),%eax
c00030f9:	0f af d0             	imul   %eax,%edx
c00030fc:	8b 45 08             	mov    0x8(%ebp),%eax
c00030ff:	c1 e0 04             	shl    $0x4,%eax
c0003102:	8b 80 c8 77 00 c0    	mov    -0x3fff8838(%eax),%eax
c0003108:	0f af d0             	imul   %eax,%edx
c000310b:	b8 e0 77 00 c0       	mov    $0xc00077e0,%eax
c0003110:	89 54 24 04          	mov    %edx,0x4(%esp)
c0003114:	89 04 24             	mov    %eax,(%esp)
c0003117:	e8 ec 25 00 00       	call   c0005708 <printf>
c000311c:	b8 ff ff ff ff       	mov    $0xffffffff,%eax
c0003121:	83 c4 14             	add    $0x14,%esp
c0003124:	5b                   	pop    %ebx
c0003125:	5d                   	pop    %ebp
c0003126:	c3                   	ret    
c0003127:	c7 44 24 08 10 00 00 	movl   $0x10,0x8(%esp)
c000312e:	00 
c000312f:	c7 44 24 04 0b 00 00 	movl   $0xb,0x4(%esp)
c0003136:	00 
c0003137:	c7 04 24 00 00 0a 00 	movl   $0xa0000,(%esp)
c000313e:	e8 db 19 00 00       	call   c0004b1e <memset>
c0003143:	c6 05 18 80 00 c0 01 	movb   $0x1,0xc0008018
c000314a:	8b 45 08             	mov    0x8(%ebp),%eax
c000314d:	c1 e0 04             	shl    $0x4,%eax
c0003150:	8b 90 c0 77 00 c0    	mov    -0x3fff8840(%eax),%edx
c0003156:	8b 45 08             	mov    0x8(%ebp),%eax
c0003159:	c1 e0 04             	shl    $0x4,%eax
c000315c:	8b 80 c4 77 00 c0    	mov    -0x3fff883c(%eax),%eax
c0003162:	0f af d0             	imul   %eax,%edx
c0003165:	8b 45 08             	mov    0x8(%ebp),%eax
c0003168:	c1 e0 04             	shl    $0x4,%eax
c000316b:	8b 80 c8 77 00 c0    	mov    -0x3fff8838(%eax),%eax
c0003171:	0f af d0             	imul   %eax,%edx
c0003174:	a1 20 d0 01 c0       	mov    0xc001d020,%eax
c0003179:	89 54 24 08          	mov    %edx,0x8(%esp)
c000317d:	c7 44 24 04 00 00 00 	movl   $0x0,0x4(%esp)
c0003184:	00 
c0003185:	89 04 24             	mov    %eax,(%esp)
c0003188:	e8 91 19 00 00       	call   c0004b1e <memset>
c000318d:	8b 45 08             	mov    0x8(%ebp),%eax
c0003190:	c1 e0 04             	shl    $0x4,%eax
c0003193:	8b 90 c0 77 00 c0    	mov    -0x3fff8840(%eax),%edx
c0003199:	8b 45 08             	mov    0x8(%ebp),%eax
c000319c:	c1 e0 04             	shl    $0x4,%eax
c000319f:	8b 80 c4 77 00 c0    	mov    -0x3fff883c(%eax),%eax
c00031a5:	0f af d0             	imul   %eax,%edx
c00031a8:	8b 45 08             	mov    0x8(%ebp),%eax
c00031ab:	c1 e0 04             	shl    $0x4,%eax
c00031ae:	8b 80 c8 77 00 c0    	mov    -0x3fff8838(%eax),%eax
c00031b4:	89 d3                	mov    %edx,%ebx
c00031b6:	0f af d8             	imul   %eax,%ebx
c00031b9:	e8 c9 de ff ff       	call   c0001087 <getESP>
c00031be:	8b 0d 20 d0 01 c0    	mov    0xc001d020,%ecx
c00031c4:	ba fc 77 00 c0       	mov    $0xc00077fc,%edx
c00031c9:	89 5c 24 0c          	mov    %ebx,0xc(%esp)
c00031cd:	89 44 24 08          	mov    %eax,0x8(%esp)
c00031d1:	89 4c 24 04          	mov    %ecx,0x4(%esp)
c00031d5:	89 14 24             	mov    %edx,(%esp)
c00031d8:	e8 2b 25 00 00       	call   c0005708 <printf>
c00031dd:	eb fe                	jmp    c00031dd <setVideoMode+0x162>

c00031df <outpw>:
c00031df:	55                   	push   %ebp
c00031e0:	89 e5                	mov    %esp,%ebp
c00031e2:	83 ec 08             	sub    $0x8,%esp
c00031e5:	8b 55 08             	mov    0x8(%ebp),%edx
c00031e8:	8b 45 0c             	mov    0xc(%ebp),%eax
c00031eb:	66 89 55 fc          	mov    %dx,-0x4(%ebp)
c00031ef:	66 89 45 f8          	mov    %ax,-0x8(%ebp)
c00031f3:	0f b7 55 fc          	movzwl -0x4(%ebp),%edx
c00031f7:	0f b7 45 f8          	movzwl -0x8(%ebp),%eax
c00031fb:	66 ef                	out    %ax,(%dx)
c00031fd:	c9                   	leave  
c00031fe:	c3                   	ret    

c00031ff <outp>:
c00031ff:	55                   	push   %ebp
c0003200:	89 e5                	mov    %esp,%ebp
c0003202:	83 ec 08             	sub    $0x8,%esp
c0003205:	8b 55 08             	mov    0x8(%ebp),%edx
c0003208:	8b 45 0c             	mov    0xc(%ebp),%eax
c000320b:	66 89 55 fc          	mov    %dx,-0x4(%ebp)
c000320f:	88 45 f8             	mov    %al,-0x8(%ebp)
c0003212:	0f b7 55 fc          	movzwl -0x4(%ebp),%edx
c0003216:	0f b6 45 f8          	movzbl -0x8(%ebp),%eax
c000321a:	ee                   	out    %al,(%dx)
c000321b:	c9                   	leave  
c000321c:	c3                   	ret    

c000321d <setModeViaPorts>:
c000321d:	55                   	push   %ebp
c000321e:	89 e5                	mov    %esp,%ebp
c0003220:	83 ec 28             	sub    $0x28,%esp
c0003223:	8b 45 08             	mov    0x8(%ebp),%eax
c0003226:	3d 68 01 00 00       	cmp    $0x168,%eax
c000322b:	74 41                	je     c000326e <setModeViaPorts+0x51>
c000322d:	3d 68 01 00 00       	cmp    $0x168,%eax
c0003232:	7f 10                	jg     c0003244 <setModeViaPorts+0x27>
c0003234:	3d 00 01 00 00       	cmp    $0x100,%eax
c0003239:	74 19                	je     c0003254 <setModeViaPorts+0x37>
c000323b:	3d 40 01 00 00       	cmp    $0x140,%eax
c0003240:	74 1f                	je     c0003261 <setModeViaPorts+0x44>
c0003242:	eb 51                	jmp    c0003295 <setModeViaPorts+0x78>
c0003244:	3d 78 01 00 00       	cmp    $0x178,%eax
c0003249:	74 30                	je     c000327b <setModeViaPorts+0x5e>
c000324b:	3d 90 01 00 00       	cmp    $0x190,%eax
c0003250:	74 36                	je     c0003288 <setModeViaPorts+0x6b>
c0003252:	eb 41                	jmp    c0003295 <setModeViaPorts+0x78>
c0003254:	c7 45 e8 24 78 00 c0 	movl   $0xc0007824,-0x18(%ebp)
c000325b:	c6 45 f3 63          	movb   $0x63,-0xd(%ebp)
c000325f:	eb 3e                	jmp    c000329f <setModeViaPorts+0x82>
c0003261:	c7 45 e8 2b 78 00 c0 	movl   $0xc000782b,-0x18(%ebp)
c0003268:	c6 45 f3 63          	movb   $0x63,-0xd(%ebp)
c000326c:	eb 31                	jmp    c000329f <setModeViaPorts+0x82>
c000326e:	c7 45 e8 32 78 00 c0 	movl   $0xc0007832,-0x18(%ebp)
c0003275:	c6 45 f3 67          	movb   $0x67,-0xd(%ebp)
c0003279:	eb 24                	jmp    c000329f <setModeViaPorts+0x82>
c000327b:	c7 45 e8 39 78 00 c0 	movl   $0xc0007839,-0x18(%ebp)
c0003282:	c6 45 f3 67          	movb   $0x67,-0xd(%ebp)
c0003286:	eb 17                	jmp    c000329f <setModeViaPorts+0x82>
c0003288:	c7 45 e8 40 78 00 c0 	movl   $0xc0007840,-0x18(%ebp)
c000328f:	c6 45 f3 67          	movb   $0x67,-0xd(%ebp)
c0003293:	eb 0a                	jmp    c000329f <setModeViaPorts+0x82>
c0003295:	b8 00 00 00 00       	mov    $0x0,%eax
c000329a:	e9 a8 03 00 00       	jmp    c0003647 <setModeViaPorts+0x42a>
c000329f:	8b 45 0c             	mov    0xc(%ebp),%eax
c00032a2:	3d 2c 01 00 00       	cmp    $0x12c,%eax
c00032a7:	0f 84 b3 00 00 00    	je     c0003360 <setModeViaPorts+0x143>
c00032ad:	3d 2c 01 00 00       	cmp    $0x12c,%eax
c00032b2:	7f 34                	jg     c00032e8 <setModeViaPorts+0xcb>
c00032b4:	3d f0 00 00 00       	cmp    $0xf0,%eax
c00032b9:	74 7e                	je     c0003339 <setModeViaPorts+0x11c>
c00032bb:	3d f0 00 00 00       	cmp    $0xf0,%eax
c00032c0:	7f 13                	jg     c00032d5 <setModeViaPorts+0xb8>
c00032c2:	3d c8 00 00 00       	cmp    $0xc8,%eax
c00032c7:	74 57                	je     c0003320 <setModeViaPorts+0x103>
c00032c9:	3d e0 00 00 00       	cmp    $0xe0,%eax
c00032ce:	74 5c                	je     c000332c <setModeViaPorts+0x10f>
c00032d0:	e9 d1 00 00 00       	jmp    c00033a6 <setModeViaPorts+0x189>
c00032d5:	3d 00 01 00 00       	cmp    $0x100,%eax
c00032da:	74 6a                	je     c0003346 <setModeViaPorts+0x129>
c00032dc:	3d 0e 01 00 00       	cmp    $0x10e,%eax
c00032e1:	74 70                	je     c0003353 <setModeViaPorts+0x136>
c00032e3:	e9 be 00 00 00       	jmp    c00033a6 <setModeViaPorts+0x189>
c00032e8:	3d e0 01 00 00       	cmp    $0x1e0,%eax
c00032ed:	0f 84 8c 00 00 00    	je     c000337f <setModeViaPorts+0x162>
c00032f3:	3d e0 01 00 00       	cmp    $0x1e0,%eax
c00032f8:	7f 13                	jg     c000330d <setModeViaPorts+0xf0>
c00032fa:	3d 68 01 00 00       	cmp    $0x168,%eax
c00032ff:	74 6c                	je     c000336d <setModeViaPorts+0x150>
c0003301:	3d 90 01 00 00       	cmp    $0x190,%eax
c0003306:	74 6e                	je     c0003376 <setModeViaPorts+0x159>
c0003308:	e9 99 00 00 00       	jmp    c00033a6 <setModeViaPorts+0x189>
c000330d:	3d 34 02 00 00       	cmp    $0x234,%eax
c0003312:	74 78                	je     c000338c <setModeViaPorts+0x16f>
c0003314:	3d 58 02 00 00       	cmp    $0x258,%eax
c0003319:	74 7e                	je     c0003399 <setModeViaPorts+0x17c>
c000331b:	e9 86 00 00 00       	jmp    c00033a6 <setModeViaPorts+0x189>
c0003320:	c7 45 ec 4f 78 00 c0 	movl   $0xc000784f,-0x14(%ebp)
c0003327:	e9 84 00 00 00       	jmp    c00033b0 <setModeViaPorts+0x193>
c000332c:	c7 45 ec 57 78 00 c0 	movl   $0xc0007857,-0x14(%ebp)
c0003333:	80 4d f3 80          	orb    $0x80,-0xd(%ebp)
c0003337:	eb 77                	jmp    c00033b0 <setModeViaPorts+0x193>
c0003339:	c7 45 ec 5f 78 00 c0 	movl   $0xc000785f,-0x14(%ebp)
c0003340:	80 4d f3 80          	orb    $0x80,-0xd(%ebp)
c0003344:	eb 6a                	jmp    c00033b0 <setModeViaPorts+0x193>
c0003346:	c7 45 ec 67 78 00 c0 	movl   $0xc0007867,-0x14(%ebp)
c000334d:	80 4d f3 80          	orb    $0x80,-0xd(%ebp)
c0003351:	eb 5d                	jmp    c00033b0 <setModeViaPorts+0x193>
c0003353:	c7 45 ec 6f 78 00 c0 	movl   $0xc000786f,-0x14(%ebp)
c000335a:	80 4d f3 80          	orb    $0x80,-0xd(%ebp)
c000335e:	eb 50                	jmp    c00033b0 <setModeViaPorts+0x193>
c0003360:	c7 45 ec 77 78 00 c0 	movl   $0xc0007877,-0x14(%ebp)
c0003367:	80 4d f3 80          	orb    $0x80,-0xd(%ebp)
c000336b:	eb 43                	jmp    c00033b0 <setModeViaPorts+0x193>
c000336d:	c7 45 ec 7f 78 00 c0 	movl   $0xc000787f,-0x14(%ebp)
c0003374:	eb 3a                	jmp    c00033b0 <setModeViaPorts+0x193>
c0003376:	c7 45 ec 87 78 00 c0 	movl   $0xc0007887,-0x14(%ebp)
c000337d:	eb 31                	jmp    c00033b0 <setModeViaPorts+0x193>
c000337f:	c7 45 ec 8f 78 00 c0 	movl   $0xc000788f,-0x14(%ebp)
c0003386:	80 4d f3 80          	orb    $0x80,-0xd(%ebp)
c000338a:	eb 24                	jmp    c00033b0 <setModeViaPorts+0x193>
c000338c:	c7 45 ec 97 78 00 c0 	movl   $0xc0007897,-0x14(%ebp)
c0003393:	80 4d f3 80          	orb    $0x80,-0xd(%ebp)
c0003397:	eb 17                	jmp    c00033b0 <setModeViaPorts+0x193>
c0003399:	c7 45 ec 9f 78 00 c0 	movl   $0xc000789f,-0x14(%ebp)
c00033a0:	80 4d f3 80          	orb    $0x80,-0xd(%ebp)
c00033a4:	eb 0a                	jmp    c00033b0 <setModeViaPorts+0x193>
c00033a6:	b8 00 00 00 00       	mov    $0x0,%eax
c00033ab:	e9 97 02 00 00       	jmp    c0003647 <setModeViaPorts+0x42a>
c00033b0:	83 7d 10 00          	cmpl   $0x0,0x10(%ebp)
c00033b4:	74 18                	je     c00033ce <setModeViaPorts+0x1b1>
c00033b6:	8b 45 08             	mov    0x8(%ebp),%eax
c00033b9:	0f af 45 0c          	imul   0xc(%ebp),%eax
c00033bd:	3d 00 00 01 00       	cmp    $0x10000,%eax
c00033c2:	7e 0a                	jle    c00033ce <setModeViaPorts+0x1b1>
c00033c4:	b8 00 00 00 00       	mov    $0x0,%eax
c00033c9:	e9 79 02 00 00       	jmp    c0003647 <setModeViaPorts+0x42a>
c00033ce:	0f b6 45 f3          	movzbl -0xd(%ebp),%eax
c00033d2:	0f b6 c0             	movzbl %al,%eax
c00033d5:	89 44 24 04          	mov    %eax,0x4(%esp)
c00033d9:	c7 04 24 c2 03 00 00 	movl   $0x3c2,(%esp)
c00033e0:	e8 1a fe ff ff       	call   c00031ff <outp>
c00033e5:	c7 44 24 04 11 0e 00 	movl   $0xe11,0x4(%esp)
c00033ec:	00 
c00033ed:	c7 04 24 d4 03 00 00 	movl   $0x3d4,(%esp)
c00033f4:	e8 e6 fd ff ff       	call   c00031df <outpw>
c00033f9:	c7 45 f4 00 00 00 00 	movl   $0x0,-0xc(%ebp)
c0003400:	eb 36                	jmp    c0003438 <setModeViaPorts+0x21b>
c0003402:	8b 45 f4             	mov    -0xc(%ebp),%eax
c0003405:	03 45 e8             	add    -0x18(%ebp),%eax
c0003408:	0f b6 00             	movzbl (%eax),%eax
c000340b:	66 98                	cbtw   
c000340d:	89 c2                	mov    %eax,%edx
c000340f:	c1 e2 08             	shl    $0x8,%edx
c0003412:	8b 45 f4             	mov    -0xc(%ebp),%eax
c0003415:	0f b6 80 1d 78 00 c0 	movzbl -0x3fff87e3(%eax),%eax
c000341c:	66 98                	cbtw   
c000341e:	8d 04 02             	lea    (%edx,%eax,1),%eax
c0003421:	0f b7 c0             	movzwl %ax,%eax
c0003424:	89 44 24 04          	mov    %eax,0x4(%esp)
c0003428:	c7 04 24 d4 03 00 00 	movl   $0x3d4,(%esp)
c000342f:	e8 ab fd ff ff       	call   c00031df <outpw>
c0003434:	83 45 f4 01          	addl   $0x1,-0xc(%ebp)
c0003438:	8b 45 f4             	mov    -0xc(%ebp),%eax
c000343b:	83 f8 06             	cmp    $0x6,%eax
c000343e:	76 c2                	jbe    c0003402 <setModeViaPorts+0x1e5>
c0003440:	c7 45 f4 00 00 00 00 	movl   $0x0,-0xc(%ebp)
c0003447:	eb 36                	jmp    c000347f <setModeViaPorts+0x262>
c0003449:	8b 45 f4             	mov    -0xc(%ebp),%eax
c000344c:	03 45 ec             	add    -0x14(%ebp),%eax
c000344f:	0f b6 00             	movzbl (%eax),%eax
c0003452:	66 98                	cbtw   
c0003454:	89 c2                	mov    %eax,%edx
c0003456:	c1 e2 08             	shl    $0x8,%edx
c0003459:	8b 45 f4             	mov    -0xc(%ebp),%eax
c000345c:	0f b6 80 47 78 00 c0 	movzbl -0x3fff87b9(%eax),%eax
c0003463:	66 98                	cbtw   
c0003465:	8d 04 02             	lea    (%edx,%eax,1),%eax
c0003468:	0f b7 c0             	movzwl %ax,%eax
c000346b:	89 44 24 04          	mov    %eax,0x4(%esp)
c000346f:	c7 04 24 d4 03 00 00 	movl   $0x3d4,(%esp)
c0003476:	e8 64 fd ff ff       	call   c00031df <outpw>
c000347b:	83 45 f4 01          	addl   $0x1,-0xc(%ebp)
c000347f:	8b 45 f4             	mov    -0xc(%ebp),%eax
c0003482:	83 f8 07             	cmp    $0x7,%eax
c0003485:	76 c2                	jbe    c0003449 <setModeViaPorts+0x22c>
c0003487:	c7 44 24 04 08 00 00 	movl   $0x8,0x4(%esp)
c000348e:	00 
c000348f:	c7 04 24 d4 03 00 00 	movl   $0x3d4,(%esp)
c0003496:	e8 44 fd ff ff       	call   c00031df <outpw>
c000349b:	83 7d 10 00          	cmpl   $0x0,0x10(%ebp)
c000349f:	74 3e                	je     c00034df <setModeViaPorts+0x2c2>
c00034a1:	c7 44 24 04 14 40 00 	movl   $0x4014,0x4(%esp)
c00034a8:	00 
c00034a9:	c7 04 24 d4 03 00 00 	movl   $0x3d4,(%esp)
c00034b0:	e8 2a fd ff ff       	call   c00031df <outpw>
c00034b5:	c7 44 24 04 17 a3 00 	movl   $0xa317,0x4(%esp)
c00034bc:	00 
c00034bd:	c7 04 24 d4 03 00 00 	movl   $0x3d4,(%esp)
c00034c4:	e8 16 fd ff ff       	call   c00031df <outpw>
c00034c9:	c7 44 24 04 04 0e 00 	movl   $0xe04,0x4(%esp)
c00034d0:	00 
c00034d1:	c7 04 24 c4 03 00 00 	movl   $0x3c4,(%esp)
c00034d8:	e8 02 fd ff ff       	call   c00031df <outpw>
c00034dd:	eb 3c                	jmp    c000351b <setModeViaPorts+0x2fe>
c00034df:	c7 44 24 04 14 00 00 	movl   $0x14,0x4(%esp)
c00034e6:	00 
c00034e7:	c7 04 24 d4 03 00 00 	movl   $0x3d4,(%esp)
c00034ee:	e8 ec fc ff ff       	call   c00031df <outpw>
c00034f3:	c7 44 24 04 17 e3 00 	movl   $0xe317,0x4(%esp)
c00034fa:	00 
c00034fb:	c7 04 24 d4 03 00 00 	movl   $0x3d4,(%esp)
c0003502:	e8 d8 fc ff ff       	call   c00031df <outpw>
c0003507:	c7 44 24 04 04 06 00 	movl   $0x604,0x4(%esp)
c000350e:	00 
c000350f:	c7 04 24 c4 03 00 00 	movl   $0x3c4,(%esp)
c0003516:	e8 c4 fc ff ff       	call   c00031df <outpw>
c000351b:	c7 44 24 04 01 01 00 	movl   $0x101,0x4(%esp)
c0003522:	00 
c0003523:	c7 04 24 c4 03 00 00 	movl   $0x3c4,(%esp)
c000352a:	e8 b0 fc ff ff       	call   c00031df <outpw>
c000352f:	c7 44 24 04 02 0f 00 	movl   $0xf02,0x4(%esp)
c0003536:	00 
c0003537:	c7 04 24 c4 03 00 00 	movl   $0x3c4,(%esp)
c000353e:	e8 9c fc ff ff       	call   c00031df <outpw>
c0003543:	c7 44 24 04 05 40 00 	movl   $0x4005,0x4(%esp)
c000354a:	00 
c000354b:	c7 04 24 ce 03 00 00 	movl   $0x3ce,(%esp)
c0003552:	e8 88 fc ff ff       	call   c00031df <outpw>
c0003557:	c7 44 24 04 06 05 00 	movl   $0x506,0x4(%esp)
c000355e:	00 
c000355f:	c7 04 24 ce 03 00 00 	movl   $0x3ce,(%esp)
c0003566:	e8 74 fc ff ff       	call   c00031df <outpw>
c000356b:	c7 44 24 04 0c 00 00 	movl   $0xc,0x4(%esp)
c0003572:	00 
c0003573:	c7 04 24 d4 03 00 00 	movl   $0x3d4,(%esp)
c000357a:	e8 60 fc ff ff       	call   c00031df <outpw>
c000357f:	c7 44 24 04 0d 00 00 	movl   $0xd,0x4(%esp)
c0003586:	00 
c0003587:	c7 04 24 d4 03 00 00 	movl   $0x3d4,(%esp)
c000358e:	e8 4c fc ff ff       	call   c00031df <outpw>
c0003593:	c7 04 24 da 03 00 00 	movl   $0x3da,(%esp)
c000359a:	e8 b6 db ff ff       	call   c0001155 <inb>
c000359f:	c7 44 24 04 30 00 00 	movl   $0x30,0x4(%esp)
c00035a6:	00 
c00035a7:	c7 04 24 c0 03 00 00 	movl   $0x3c0,(%esp)
c00035ae:	e8 4c fc ff ff       	call   c00031ff <outp>
c00035b3:	c7 44 24 04 41 00 00 	movl   $0x41,0x4(%esp)
c00035ba:	00 
c00035bb:	c7 04 24 c0 03 00 00 	movl   $0x3c0,(%esp)
c00035c2:	e8 38 fc ff ff       	call   c00031ff <outp>
c00035c7:	c7 44 24 04 33 00 00 	movl   $0x33,0x4(%esp)
c00035ce:	00 
c00035cf:	c7 04 24 c0 03 00 00 	movl   $0x3c0,(%esp)
c00035d6:	e8 24 fc ff ff       	call   c00031ff <outp>
c00035db:	c7 44 24 04 00 00 00 	movl   $0x0,0x4(%esp)
c00035e2:	00 
c00035e3:	c7 04 24 c0 03 00 00 	movl   $0x3c0,(%esp)
c00035ea:	e8 10 fc ff ff       	call   c00031ff <outp>
c00035ef:	c7 45 f4 00 00 00 00 	movl   $0x0,-0xc(%ebp)
c00035f6:	eb 30                	jmp    c0003628 <setModeViaPorts+0x40b>
c00035f8:	8b 45 f4             	mov    -0xc(%ebp),%eax
c00035fb:	0f b6 c0             	movzbl %al,%eax
c00035fe:	89 44 24 04          	mov    %eax,0x4(%esp)
c0003602:	c7 04 24 c0 03 00 00 	movl   $0x3c0,(%esp)
c0003609:	e8 f1 fb ff ff       	call   c00031ff <outp>
c000360e:	8b 45 f4             	mov    -0xc(%ebp),%eax
c0003611:	0f b6 c0             	movzbl %al,%eax
c0003614:	89 44 24 04          	mov    %eax,0x4(%esp)
c0003618:	c7 04 24 c0 03 00 00 	movl   $0x3c0,(%esp)
c000361f:	e8 db fb ff ff       	call   c00031ff <outp>
c0003624:	83 45 f4 01          	addl   $0x1,-0xc(%ebp)
c0003628:	83 7d f4 0f          	cmpl   $0xf,-0xc(%ebp)
c000362c:	7e ca                	jle    c00035f8 <setModeViaPorts+0x3db>
c000362e:	c7 44 24 04 20 00 00 	movl   $0x20,0x4(%esp)
c0003635:	00 
c0003636:	c7 04 24 c0 03 00 00 	movl   $0x3c0,(%esp)
c000363d:	e8 bd fb ff ff       	call   c00031ff <outp>
c0003642:	b8 01 00 00 00       	mov    $0x1,%eax
c0003647:	c9                   	leave  
c0003648:	c3                   	ret    

c0003649 <updateScreen>:
c0003649:	55                   	push   %ebp
c000364a:	89 e5                	mov    %esp,%ebp
c000364c:	83 ec 38             	sub    $0x38,%esp
c000364f:	a1 28 d0 01 c0       	mov    0xc001d028,%eax
c0003654:	c1 e0 04             	shl    $0x4,%eax
c0003657:	0f b6 80 cc 77 00 c0 	movzbl -0x3fff8834(%eax),%eax
c000365e:	84 c0                	test   %al,%al
c0003660:	74 4e                	je     c00036b0 <updateScreen+0x67>
c0003662:	a1 28 d0 01 c0       	mov    0xc001d028,%eax
c0003667:	c1 e0 04             	shl    $0x4,%eax
c000366a:	8b 90 c0 77 00 c0    	mov    -0x3fff8840(%eax),%edx
c0003670:	a1 28 d0 01 c0       	mov    0xc001d028,%eax
c0003675:	c1 e0 04             	shl    $0x4,%eax
c0003678:	8b 80 c4 77 00 c0    	mov    -0x3fff883c(%eax),%eax
c000367e:	0f af d0             	imul   %eax,%edx
c0003681:	a1 28 d0 01 c0       	mov    0xc001d028,%eax
c0003686:	c1 e0 04             	shl    $0x4,%eax
c0003689:	8b 80 c8 77 00 c0    	mov    -0x3fff8838(%eax),%eax
c000368f:	0f af d0             	imul   %eax,%edx
c0003692:	a1 20 d0 01 c0       	mov    0xc001d020,%eax
c0003697:	89 54 24 08          	mov    %edx,0x8(%esp)
c000369b:	c7 44 24 04 00 00 0a 	movl   $0xa0000,0x4(%esp)
c00036a2:	00 
c00036a3:	89 04 24             	mov    %eax,(%esp)
c00036a6:	e8 fe 14 00 00       	call   c0004ba9 <memcpy>
c00036ab:	e9 01 01 00 00       	jmp    c00037b1 <updateScreen+0x168>
c00036b0:	a1 28 d0 01 c0       	mov    0xc001d028,%eax
c00036b5:	c1 e0 04             	shl    $0x4,%eax
c00036b8:	8b 90 c0 77 00 c0    	mov    -0x3fff8840(%eax),%edx
c00036be:	a1 28 d0 01 c0       	mov    0xc001d028,%eax
c00036c3:	c1 e0 04             	shl    $0x4,%eax
c00036c6:	8b 80 c4 77 00 c0    	mov    -0x3fff883c(%eax),%eax
c00036cc:	0f af d0             	imul   %eax,%edx
c00036cf:	a1 28 d0 01 c0       	mov    0xc001d028,%eax
c00036d4:	c1 e0 04             	shl    $0x4,%eax
c00036d7:	8b 80 c8 77 00 c0    	mov    -0x3fff8838(%eax),%eax
c00036dd:	0f af c2             	imul   %edx,%eax
c00036e0:	c1 e8 02             	shr    $0x2,%eax
c00036e3:	89 45 d8             	mov    %eax,-0x28(%ebp)
c00036e6:	c7 45 dc 00 00 00 00 	movl   $0x0,-0x24(%ebp)
c00036ed:	c7 45 e4 00 00 0a 00 	movl   $0xa0000,-0x1c(%ebp)
c00036f4:	8b 45 d8             	mov    -0x28(%ebp),%eax
c00036f7:	05 00 00 0a 00       	add    $0xa0000,%eax
c00036fc:	89 45 e8             	mov    %eax,-0x18(%ebp)
c00036ff:	8b 45 d8             	mov    -0x28(%ebp),%eax
c0003702:	05 00 00 05 00       	add    $0x50000,%eax
c0003707:	01 c0                	add    %eax,%eax
c0003709:	89 45 ec             	mov    %eax,-0x14(%ebp)
c000370c:	8b 55 d8             	mov    -0x28(%ebp),%edx
c000370f:	89 d0                	mov    %edx,%eax
c0003711:	01 c0                	add    %eax,%eax
c0003713:	01 d0                	add    %edx,%eax
c0003715:	05 00 00 0a 00       	add    $0xa0000,%eax
c000371a:	89 45 f0             	mov    %eax,-0x10(%ebp)
c000371d:	a1 20 d0 01 c0       	mov    0xc001d020,%eax
c0003722:	89 45 f4             	mov    %eax,-0xc(%ebp)
c0003725:	eb 7e                	jmp    c00037a5 <updateScreen+0x15c>
c0003727:	8b 45 e4             	mov    -0x1c(%ebp),%eax
c000372a:	c6 00 00             	movb   $0x0,(%eax)
c000372d:	8b 45 e8             	mov    -0x18(%ebp),%eax
c0003730:	c6 00 00             	movb   $0x0,(%eax)
c0003733:	8b 45 ec             	mov    -0x14(%ebp),%eax
c0003736:	c6 00 00             	movb   $0x0,(%eax)
c0003739:	8b 45 f0             	mov    -0x10(%ebp),%eax
c000373c:	c6 00 00             	movb   $0x0,(%eax)
c000373f:	c7 45 e0 00 00 00 00 	movl   $0x0,-0x20(%ebp)
c0003746:	eb 43                	jmp    c000378b <updateScreen+0x142>
c0003748:	8b 45 e4             	mov    -0x1c(%ebp),%eax
c000374b:	0f b6 00             	movzbl (%eax),%eax
c000374e:	89 c2                	mov    %eax,%edx
c0003750:	8b 45 f4             	mov    -0xc(%ebp),%eax
c0003753:	0f b6 00             	movzbl (%eax),%eax
c0003756:	83 e0 03             	and    $0x3,%eax
c0003759:	09 d0                	or     %edx,%eax
c000375b:	89 c2                	mov    %eax,%edx
c000375d:	8b 45 e4             	mov    -0x1c(%ebp),%eax
c0003760:	88 10                	mov    %dl,(%eax)
c0003762:	8b 45 e8             	mov    -0x18(%ebp),%eax
c0003765:	0f b6 10             	movzbl (%eax),%edx
c0003768:	8b 45 e8             	mov    -0x18(%ebp),%eax
c000376b:	88 10                	mov    %dl,(%eax)
c000376d:	8b 45 ec             	mov    -0x14(%ebp),%eax
c0003770:	0f b6 10             	movzbl (%eax),%edx
c0003773:	8b 45 ec             	mov    -0x14(%ebp),%eax
c0003776:	88 10                	mov    %dl,(%eax)
c0003778:	8b 45 f0             	mov    -0x10(%ebp),%eax
c000377b:	0f b6 10             	movzbl (%eax),%edx
c000377e:	8b 45 f0             	mov    -0x10(%ebp),%eax
c0003781:	88 10                	mov    %dl,(%eax)
c0003783:	83 45 f4 01          	addl   $0x1,-0xc(%ebp)
c0003787:	83 45 e0 01          	addl   $0x1,-0x20(%ebp)
c000378b:	83 7d e0 03          	cmpl   $0x3,-0x20(%ebp)
c000378f:	76 b7                	jbe    c0003748 <updateScreen+0xff>
c0003791:	83 45 e4 01          	addl   $0x1,-0x1c(%ebp)
c0003795:	83 45 e8 01          	addl   $0x1,-0x18(%ebp)
c0003799:	83 45 ec 01          	addl   $0x1,-0x14(%ebp)
c000379d:	83 45 f0 01          	addl   $0x1,-0x10(%ebp)
c00037a1:	83 45 dc 01          	addl   $0x1,-0x24(%ebp)
c00037a5:	8b 45 d8             	mov    -0x28(%ebp),%eax
c00037a8:	3b 45 dc             	cmp    -0x24(%ebp),%eax
c00037ab:	0f 87 76 ff ff ff    	ja     c0003727 <updateScreen+0xde>
c00037b1:	c9                   	leave  
c00037b2:	c3                   	ret    

c00037b3 <getScreenWidth>:
c00037b3:	55                   	push   %ebp
c00037b4:	89 e5                	mov    %esp,%ebp
c00037b6:	a1 28 d0 01 c0       	mov    0xc001d028,%eax
c00037bb:	c1 e0 04             	shl    $0x4,%eax
c00037be:	8b 80 c0 77 00 c0    	mov    -0x3fff8840(%eax),%eax
c00037c4:	5d                   	pop    %ebp
c00037c5:	c3                   	ret    

c00037c6 <getScreenHeight>:
c00037c6:	55                   	push   %ebp
c00037c7:	89 e5                	mov    %esp,%ebp
c00037c9:	a1 28 d0 01 c0       	mov    0xc001d028,%eax
c00037ce:	c1 e0 04             	shl    $0x4,%eax
c00037d1:	8b 80 c4 77 00 c0    	mov    -0x3fff883c(%eax),%eax
c00037d7:	5d                   	pop    %ebp
c00037d8:	c3                   	ret    

c00037d9 <getScreenDepth>:
c00037d9:	55                   	push   %ebp
c00037da:	89 e5                	mov    %esp,%ebp
c00037dc:	a1 28 d0 01 c0       	mov    0xc001d028,%eax
c00037e1:	c1 e0 04             	shl    $0x4,%eax
c00037e4:	8b 80 c8 77 00 c0    	mov    -0x3fff8838(%eax),%eax
c00037ea:	5d                   	pop    %ebp
c00037eb:	c3                   	ret    

c00037ec <getScreenBuf>:
c00037ec:	55                   	push   %ebp
c00037ed:	89 e5                	mov    %esp,%ebp
c00037ef:	53                   	push   %ebx
c00037f0:	8b 45 08             	mov    0x8(%ebp),%eax
c00037f3:	8b 1d 20 d0 01 c0    	mov    0xc001d020,%ebx
c00037f9:	8b 15 28 d0 01 c0    	mov    0xc001d028,%edx
c00037ff:	c1 e2 04             	shl    $0x4,%edx
c0003802:	8b 8a c0 77 00 c0    	mov    -0x3fff8840(%edx),%ecx
c0003808:	8b 15 28 d0 01 c0    	mov    0xc001d028,%edx
c000380e:	c1 e2 04             	shl    $0x4,%edx
c0003811:	8b 92 c4 77 00 c0    	mov    -0x3fff883c(%edx),%edx
c0003817:	89 18                	mov    %ebx,(%eax)
c0003819:	89 48 04             	mov    %ecx,0x4(%eax)
c000381c:	89 50 08             	mov    %edx,0x8(%eax)
c000381f:	5b                   	pop    %ebx
c0003820:	5d                   	pop    %ebp
c0003821:	c2 04 00             	ret    $0x4

c0003824 <elfCheck>:
c0003824:	55                   	push   %ebp
c0003825:	89 e5                	mov    %esp,%ebp
c0003827:	83 ec 10             	sub    $0x10,%esp
c000382a:	8b 45 08             	mov    0x8(%ebp),%eax
c000382d:	89 45 f8             	mov    %eax,-0x8(%ebp)
c0003830:	8b 45 f8             	mov    -0x8(%ebp),%eax
c0003833:	8b 00                	mov    (%eax),%eax
c0003835:	3d 46 4c 45 7f       	cmp    $0x7f454c46,%eax
c000383a:	75 07                	jne    c0003843 <elfCheck+0x1f>
c000383c:	b8 00 00 00 00       	mov    $0x0,%eax
c0003841:	eb 2d                	jmp    c0003870 <elfCheck+0x4c>
c0003843:	8b 45 f8             	mov    -0x8(%ebp),%eax
c0003846:	83 c0 04             	add    $0x4,%eax
c0003849:	0f b6 00             	movzbl (%eax),%eax
c000384c:	3c 01                	cmp    $0x1,%al
c000384e:	74 07                	je     c0003857 <elfCheck+0x33>
c0003850:	b8 00 00 00 00       	mov    $0x0,%eax
c0003855:	eb 19                	jmp    c0003870 <elfCheck+0x4c>
c0003857:	8b 45 f8             	mov    -0x8(%ebp),%eax
c000385a:	83 c0 05             	add    $0x5,%eax
c000385d:	0f b6 00             	movzbl (%eax),%eax
c0003860:	3c 01                	cmp    $0x1,%al
c0003862:	74 07                	je     c000386b <elfCheck+0x47>
c0003864:	b8 00 00 00 00       	mov    $0x0,%eax
c0003869:	eb 05                	jmp    c0003870 <elfCheck+0x4c>
c000386b:	b8 01 00 00 00       	mov    $0x1,%eax
c0003870:	c9                   	leave  
c0003871:	c3                   	ret    

c0003872 <coreAugment>:
c0003872:	55                   	push   %ebp
c0003873:	89 e5                	mov    %esp,%ebp
c0003875:	83 ec 38             	sub    $0x38,%esp
c0003878:	8b 45 08             	mov    0x8(%ebp),%eax
c000387b:	89 45 d8             	mov    %eax,-0x28(%ebp)
c000387e:	8b 45 d8             	mov    -0x28(%ebp),%eax
c0003881:	8b 40 1c             	mov    0x1c(%eax),%eax
c0003884:	89 45 dc             	mov    %eax,-0x24(%ebp)
c0003887:	83 7d dc 00          	cmpl   $0x0,-0x24(%ebp)
c000388b:	75 0a                	jne    c0003897 <coreAugment+0x25>
c000388d:	b8 00 00 00 00       	mov    $0x0,%eax
c0003892:	e9 8c 00 00 00       	jmp    c0003923 <coreAugment+0xb1>
c0003897:	8b 45 d8             	mov    -0x28(%ebp),%eax
c000389a:	03 45 dc             	add    -0x24(%ebp),%eax
c000389d:	89 45 e0             	mov    %eax,-0x20(%ebp)
c00038a0:	c7 45 e4 00 00 00 00 	movl   $0x0,-0x1c(%ebp)
c00038a7:	8b 45 d8             	mov    -0x28(%ebp),%eax
c00038aa:	0f b7 40 2c          	movzwl 0x2c(%eax),%eax
c00038ae:	0f b7 c0             	movzwl %ax,%eax
c00038b1:	89 45 e8             	mov    %eax,-0x18(%ebp)
c00038b4:	8b 45 d8             	mov    -0x28(%ebp),%eax
c00038b7:	0f b7 40 2a          	movzwl 0x2a(%eax),%eax
c00038bb:	0f b7 c0             	movzwl %ax,%eax
c00038be:	89 45 ec             	mov    %eax,-0x14(%ebp)
c00038c1:	c7 45 f0 00 00 00 00 	movl   $0x0,-0x10(%ebp)
c00038c8:	8b 45 e0             	mov    -0x20(%ebp),%eax
c00038cb:	89 45 e4             	mov    %eax,-0x1c(%ebp)
c00038ce:	eb 46                	jmp    c0003916 <coreAugment+0xa4>
c00038d0:	8b 45 e4             	mov    -0x1c(%ebp),%eax
c00038d3:	89 45 f4             	mov    %eax,-0xc(%ebp)
c00038d6:	8b 45 f4             	mov    -0xc(%ebp),%eax
c00038d9:	8b 00                	mov    (%eax),%eax
c00038db:	3d 51 e5 74 64       	cmp    $0x6474e551,%eax
c00038e0:	74 2a                	je     c000390c <coreAugment+0x9a>
c00038e2:	8b 45 f4             	mov    -0xc(%ebp),%eax
c00038e5:	8b 48 14             	mov    0x14(%eax),%ecx
c00038e8:	8b 45 f4             	mov    -0xc(%ebp),%eax
c00038eb:	8b 50 04             	mov    0x4(%eax),%edx
c00038ee:	8b 45 08             	mov    0x8(%ebp),%eax
c00038f1:	8d 04 02             	lea    (%edx,%eax,1),%eax
c00038f4:	89 c2                	mov    %eax,%edx
c00038f6:	8b 45 f4             	mov    -0xc(%ebp),%eax
c00038f9:	8b 40 08             	mov    0x8(%eax),%eax
c00038fc:	89 4c 24 08          	mov    %ecx,0x8(%esp)
c0003900:	89 54 24 04          	mov    %edx,0x4(%esp)
c0003904:	89 04 24             	mov    %eax,(%esp)
c0003907:	e8 9d 12 00 00       	call   c0004ba9 <memcpy>
c000390c:	8b 45 ec             	mov    -0x14(%ebp),%eax
c000390f:	01 45 e4             	add    %eax,-0x1c(%ebp)
c0003912:	83 45 f0 01          	addl   $0x1,-0x10(%ebp)
c0003916:	8b 45 f0             	mov    -0x10(%ebp),%eax
c0003919:	3b 45 e8             	cmp    -0x18(%ebp),%eax
c000391c:	7c b2                	jl     c00038d0 <coreAugment+0x5e>
c000391e:	b8 00 00 00 00       	mov    $0x0,%eax
c0003923:	c9                   	leave  
c0003924:	c3                   	ret    

c0003925 <coreCheck>:
c0003925:	55                   	push   %ebp
c0003926:	89 e5                	mov    %esp,%ebp
c0003928:	83 ec 24             	sub    $0x24,%esp
c000392b:	8b 45 08             	mov    0x8(%ebp),%eax
c000392e:	89 04 24             	mov    %eax,(%esp)
c0003931:	e8 ee fe ff ff       	call   c0003824 <elfCheck>
c0003936:	84 c0                	test   %al,%al
c0003938:	75 0a                	jne    c0003944 <coreCheck+0x1f>
c000393a:	b8 ff ff ff ff       	mov    $0xffffffff,%eax
c000393f:	e9 a5 00 00 00       	jmp    c00039e9 <coreCheck+0xc4>
c0003944:	8b 45 08             	mov    0x8(%ebp),%eax
c0003947:	89 45 e0             	mov    %eax,-0x20(%ebp)
c000394a:	8b 45 e0             	mov    -0x20(%ebp),%eax
c000394d:	8b 40 18             	mov    0x18(%eax),%eax
c0003950:	3d ff ff ff bf       	cmp    $0xbfffffff,%eax
c0003955:	77 0a                	ja     c0003961 <coreCheck+0x3c>
c0003957:	b8 fe ff ff ff       	mov    $0xfffffffe,%eax
c000395c:	e9 88 00 00 00       	jmp    c00039e9 <coreCheck+0xc4>
c0003961:	8b 45 e0             	mov    -0x20(%ebp),%eax
c0003964:	8b 40 1c             	mov    0x1c(%eax),%eax
c0003967:	89 45 e4             	mov    %eax,-0x1c(%ebp)
c000396a:	83 7d e4 00          	cmpl   $0x0,-0x1c(%ebp)
c000396e:	75 07                	jne    c0003977 <coreCheck+0x52>
c0003970:	b8 00 00 00 00       	mov    $0x0,%eax
c0003975:	eb 72                	jmp    c00039e9 <coreCheck+0xc4>
c0003977:	8b 45 e0             	mov    -0x20(%ebp),%eax
c000397a:	03 45 e4             	add    -0x1c(%ebp),%eax
c000397d:	89 45 e8             	mov    %eax,-0x18(%ebp)
c0003980:	c7 45 ec 00 00 00 00 	movl   $0x0,-0x14(%ebp)
c0003987:	8b 45 e0             	mov    -0x20(%ebp),%eax
c000398a:	0f b7 40 2c          	movzwl 0x2c(%eax),%eax
c000398e:	0f b7 c0             	movzwl %ax,%eax
c0003991:	89 45 f0             	mov    %eax,-0x10(%ebp)
c0003994:	8b 45 e0             	mov    -0x20(%ebp),%eax
c0003997:	0f b7 40 2a          	movzwl 0x2a(%eax),%eax
c000399b:	0f b7 c0             	movzwl %ax,%eax
c000399e:	89 45 f4             	mov    %eax,-0xc(%ebp)
c00039a1:	c7 45 f8 00 00 00 00 	movl   $0x0,-0x8(%ebp)
c00039a8:	8b 45 e8             	mov    -0x18(%ebp),%eax
c00039ab:	89 45 ec             	mov    %eax,-0x14(%ebp)
c00039ae:	eb 2c                	jmp    c00039dc <coreCheck+0xb7>
c00039b0:	8b 45 ec             	mov    -0x14(%ebp),%eax
c00039b3:	89 45 fc             	mov    %eax,-0x4(%ebp)
c00039b6:	8b 45 fc             	mov    -0x4(%ebp),%eax
c00039b9:	8b 50 04             	mov    0x4(%eax),%edx
c00039bc:	8b 45 08             	mov    0x8(%ebp),%eax
c00039bf:	8d 04 02             	lea    (%edx,%eax,1),%eax
c00039c2:	8b 00                	mov    (%eax),%eax
c00039c4:	3d be ba de c0       	cmp    $0xc0debabe,%eax
c00039c9:	75 07                	jne    c00039d2 <coreCheck+0xad>
c00039cb:	b8 00 00 00 00       	mov    $0x0,%eax
c00039d0:	eb 17                	jmp    c00039e9 <coreCheck+0xc4>
c00039d2:	8b 45 f4             	mov    -0xc(%ebp),%eax
c00039d5:	01 45 ec             	add    %eax,-0x14(%ebp)
c00039d8:	83 45 f8 01          	addl   $0x1,-0x8(%ebp)
c00039dc:	8b 45 f8             	mov    -0x8(%ebp),%eax
c00039df:	3b 45 f0             	cmp    -0x10(%ebp),%eax
c00039e2:	7c cc                	jl     c00039b0 <coreCheck+0x8b>
c00039e4:	b8 03 00 00 00       	mov    $0x3,%eax
c00039e9:	c9                   	leave  
c00039ea:	c3                   	ret    

c00039eb <elfJmp>:
c00039eb:	55                   	push   %ebp
c00039ec:	89 e5                	mov    %esp,%ebp
c00039ee:	83 ec 28             	sub    $0x28,%esp
c00039f1:	8b 45 08             	mov    0x8(%ebp),%eax
c00039f4:	89 45 f0             	mov    %eax,-0x10(%ebp)
c00039f7:	8b 45 f0             	mov    -0x10(%ebp),%eax
c00039fa:	8b 40 18             	mov    0x18(%eax),%eax
c00039fd:	89 45 f4             	mov    %eax,-0xc(%ebp)
c0003a00:	c7 44 24 08 60 d0 21 	movl   $0xc021d060,0x8(%esp)
c0003a07:	c0 
c0003a08:	c7 44 24 04 60 d0 01 	movl   $0xc001d060,0x4(%esp)
c0003a0f:	c0 
c0003a10:	8b 45 f4             	mov    -0xc(%ebp),%eax
c0003a13:	89 04 24             	mov    %eax,(%esp)
c0003a16:	e8 02 d7 ff ff       	call   c000111d <elfJump>
c0003a1b:	c9                   	leave  
c0003a1c:	c3                   	ret    

c0003a1d <elfExec>:
c0003a1d:	55                   	push   %ebp
c0003a1e:	89 e5                	mov    %esp,%ebp
c0003a20:	57                   	push   %edi
c0003a21:	56                   	push   %esi
c0003a22:	53                   	push   %ebx
c0003a23:	81 ec 8c 00 00 00    	sub    $0x8c,%esp
c0003a29:	8b 45 08             	mov    0x8(%ebp),%eax
c0003a2c:	89 04 24             	mov    %eax,(%esp)
c0003a2f:	e8 f0 fd ff ff       	call   c0003824 <elfCheck>
c0003a34:	84 c0                	test   %al,%al
c0003a36:	0f 84 da 00 00 00    	je     c0003b16 <elfExec+0xf9>
c0003a3c:	8b 45 08             	mov    0x8(%ebp),%eax
c0003a3f:	89 45 b0             	mov    %eax,-0x50(%ebp)
c0003a42:	8b 45 b0             	mov    -0x50(%ebp),%eax
c0003a45:	8b 40 1c             	mov    0x1c(%eax),%eax
c0003a48:	89 45 b4             	mov    %eax,-0x4c(%ebp)
c0003a4b:	83 7d b4 00          	cmpl   $0x0,-0x4c(%ebp)
c0003a4f:	75 0a                	jne    c0003a5b <elfExec+0x3e>
c0003a51:	b8 00 00 00 00       	mov    $0x0,%eax
c0003a56:	e9 c0 00 00 00       	jmp    c0003b1b <elfExec+0xfe>
c0003a5b:	8b 45 b0             	mov    -0x50(%ebp),%eax
c0003a5e:	03 45 b4             	add    -0x4c(%ebp),%eax
c0003a61:	89 45 b8             	mov    %eax,-0x48(%ebp)
c0003a64:	c7 45 bc 00 00 00 00 	movl   $0x0,-0x44(%ebp)
c0003a6b:	8b 45 b0             	mov    -0x50(%ebp),%eax
c0003a6e:	0f b7 40 2c          	movzwl 0x2c(%eax),%eax
c0003a72:	0f b7 c0             	movzwl %ax,%eax
c0003a75:	89 45 c0             	mov    %eax,-0x40(%ebp)
c0003a78:	8b 45 b0             	mov    -0x50(%ebp),%eax
c0003a7b:	0f b7 40 2a          	movzwl 0x2a(%eax),%eax
c0003a7f:	0f b7 c0             	movzwl %ax,%eax
c0003a82:	89 45 c4             	mov    %eax,-0x3c(%ebp)
c0003a85:	c7 45 c8 00 00 00 00 	movl   $0x0,-0x38(%ebp)
c0003a8c:	b8 a8 78 00 c0       	mov    $0xc00078a8,%eax
c0003a91:	89 04 24             	mov    %eax,(%esp)
c0003a94:	e8 6f 1c 00 00       	call   c0005708 <printf>
c0003a99:	8b 45 b8             	mov    -0x48(%ebp),%eax
c0003a9c:	89 45 bc             	mov    %eax,-0x44(%ebp)
c0003a9f:	eb 63                	jmp    c0003b04 <elfExec+0xe7>
c0003aa1:	8b 45 bc             	mov    -0x44(%ebp),%eax
c0003aa4:	89 45 d0             	mov    %eax,-0x30(%ebp)
c0003aa7:	8b 45 d0             	mov    -0x30(%ebp),%eax
c0003aaa:	8b 40 18             	mov    0x18(%eax),%eax
c0003aad:	89 45 a4             	mov    %eax,-0x5c(%ebp)
c0003ab0:	8b 45 d0             	mov    -0x30(%ebp),%eax
c0003ab3:	8b 78 1c             	mov    0x1c(%eax),%edi
c0003ab6:	8b 45 d0             	mov    -0x30(%ebp),%eax
c0003ab9:	8b 70 14             	mov    0x14(%eax),%esi
c0003abc:	8b 45 d0             	mov    -0x30(%ebp),%eax
c0003abf:	8b 58 08             	mov    0x8(%eax),%ebx
c0003ac2:	8b 45 d0             	mov    -0x30(%ebp),%eax
c0003ac5:	8b 48 04             	mov    0x4(%eax),%ecx
c0003ac8:	8b 45 d0             	mov    -0x30(%ebp),%eax
c0003acb:	8b 10                	mov    (%eax),%edx
c0003acd:	c7 45 94 b8 78 00 c0 	movl   $0xc00078b8,-0x6c(%ebp)
c0003ad4:	8b 45 a4             	mov    -0x5c(%ebp),%eax
c0003ad7:	89 44 24 18          	mov    %eax,0x18(%esp)
c0003adb:	89 7c 24 14          	mov    %edi,0x14(%esp)
c0003adf:	89 74 24 10          	mov    %esi,0x10(%esp)
c0003ae3:	89 5c 24 0c          	mov    %ebx,0xc(%esp)
c0003ae7:	89 4c 24 08          	mov    %ecx,0x8(%esp)
c0003aeb:	89 54 24 04          	mov    %edx,0x4(%esp)
c0003aef:	8b 45 94             	mov    -0x6c(%ebp),%eax
c0003af2:	89 04 24             	mov    %eax,(%esp)
c0003af5:	e8 0e 1c 00 00       	call   c0005708 <printf>
c0003afa:	8b 45 c4             	mov    -0x3c(%ebp),%eax
c0003afd:	01 45 bc             	add    %eax,-0x44(%ebp)
c0003b00:	83 45 c8 01          	addl   $0x1,-0x38(%ebp)
c0003b04:	8b 45 c8             	mov    -0x38(%ebp),%eax
c0003b07:	3b 45 c0             	cmp    -0x40(%ebp),%eax
c0003b0a:	7c 95                	jl     c0003aa1 <elfExec+0x84>
c0003b0c:	8b 45 b0             	mov    -0x50(%ebp),%eax
c0003b0f:	8b 40 20             	mov    0x20(%eax),%eax
c0003b12:	89 45 cc             	mov    %eax,-0x34(%ebp)
c0003b15:	90                   	nop
c0003b16:	b8 01 00 00 00       	mov    $0x1,%eax
c0003b1b:	81 c4 8c 00 00 00    	add    $0x8c,%esp
c0003b21:	5b                   	pop    %ebx
c0003b22:	5e                   	pop    %esi
c0003b23:	5f                   	pop    %edi
c0003b24:	5d                   	pop    %ebp
c0003b25:	c3                   	ret    
c0003b26:	90                   	nop
c0003b27:	90                   	nop

c0003b28 <exec>:
c0003b28:	55                   	push   %ebp
c0003b29:	89 e5                	mov    %esp,%ebp
c0003b2b:	83 ec 18             	sub    $0x18,%esp
c0003b2e:	c7 04 24 04 79 00 c0 	movl   $0xc0007904,(%esp)
c0003b35:	e8 7e 1a 00 00       	call   c00055b8 <panic>
c0003b3a:	b8 00 00 00 00       	mov    $0x0,%eax
c0003b3f:	c9                   	leave  
c0003b40:	c3                   	ret    
c0003b41:	90                   	nop
c0003b42:	90                   	nop
c0003b43:	90                   	nop

c0003b44 <setupTimer>:
c0003b44:	55                   	push   %ebp
c0003b45:	89 e5                	mov    %esp,%ebp
c0003b47:	83 ec 18             	sub    $0x18,%esp
c0003b4a:	a1 2c d0 01 c0       	mov    0xc001d02c,%eax
c0003b4f:	c6 00 00             	movb   $0x0,(%eax)
c0003b52:	a1 2c d0 01 c0       	mov    0xc001d02c,%eax
c0003b57:	c6 40 01 00          	movb   $0x0,0x1(%eax)
c0003b5b:	a1 2c d0 01 c0       	mov    0xc001d02c,%eax
c0003b60:	8b 55 10             	mov    0x10(%ebp),%edx
c0003b63:	89 50 04             	mov    %edx,0x4(%eax)
c0003b66:	a1 2c d0 01 c0       	mov    0xc001d02c,%eax
c0003b6b:	8b 55 0c             	mov    0xc(%ebp),%edx
c0003b6e:	89 50 08             	mov    %edx,0x8(%eax)
c0003b71:	a1 2c d0 01 c0       	mov    0xc001d02c,%eax
c0003b76:	c7 40 0c 00 00 00 00 	movl   $0x0,0xc(%eax)
c0003b7d:	a1 2c d0 01 c0       	mov    0xc001d02c,%eax
c0003b82:	8b 55 08             	mov    0x8(%ebp),%edx
c0003b85:	89 50 10             	mov    %edx,0x10(%eax)
c0003b88:	a1 2c d0 01 c0       	mov    0xc001d02c,%eax
c0003b8d:	c7 40 14 00 00 00 00 	movl   $0x0,0x14(%eax)
c0003b94:	a1 2c d0 01 c0       	mov    0xc001d02c,%eax
c0003b99:	c7 40 18 00 00 00 00 	movl   $0x0,0x18(%eax)
c0003ba0:	a1 2c d0 01 c0       	mov    0xc001d02c,%eax
c0003ba5:	8b 50 04             	mov    0x4(%eax),%edx
c0003ba8:	a1 2c d0 01 c0       	mov    0xc001d02c,%eax
c0003bad:	8b 40 10             	mov    0x10(%eax),%eax
c0003bb0:	89 04 24             	mov    %eax,(%esp)
c0003bb3:	ff d2                	call   *%edx
c0003bb5:	c9                   	leave  
c0003bb6:	c3                   	ret    

c0003bb7 <setTimerFreq>:
c0003bb7:	55                   	push   %ebp
c0003bb8:	89 e5                	mov    %esp,%ebp
c0003bba:	83 ec 18             	sub    $0x18,%esp
c0003bbd:	83 7d 08 00          	cmpl   $0x0,0x8(%ebp)
c0003bc1:	7e 23                	jle    c0003be6 <setTimerFreq+0x2f>
c0003bc3:	83 7d 08 ff          	cmpl   $0xffffffff,0x8(%ebp)
c0003bc7:	74 1d                	je     c0003be6 <setTimerFreq+0x2f>
c0003bc9:	a1 2c d0 01 c0       	mov    0xc001d02c,%eax
c0003bce:	8b 55 08             	mov    0x8(%ebp),%edx
c0003bd1:	89 50 10             	mov    %edx,0x10(%eax)
c0003bd4:	a1 2c d0 01 c0       	mov    0xc001d02c,%eax
c0003bd9:	8b 50 04             	mov    0x4(%eax),%edx
c0003bdc:	8b 45 08             	mov    0x8(%ebp),%eax
c0003bdf:	89 04 24             	mov    %eax,(%esp)
c0003be2:	ff d2                	call   *%edx
c0003be4:	eb 1d                	jmp    c0003c03 <setTimerFreq+0x4c>
c0003be6:	a1 2c d0 01 c0       	mov    0xc001d02c,%eax
c0003beb:	c7 40 10 00 00 00 00 	movl   $0x0,0x10(%eax)
c0003bf2:	a1 2c d0 01 c0       	mov    0xc001d02c,%eax
c0003bf7:	8b 40 04             	mov    0x4(%eax),%eax
c0003bfa:	c7 04 24 00 00 00 00 	movl   $0x0,(%esp)
c0003c01:	ff d0                	call   *%eax
c0003c03:	c9                   	leave  
c0003c04:	c3                   	ret    

c0003c05 <timerTick>:
c0003c05:	55                   	push   %ebp
c0003c06:	89 e5                	mov    %esp,%ebp
c0003c08:	83 ec 18             	sub    $0x18,%esp
c0003c0b:	a1 2c d0 01 c0       	mov    0xc001d02c,%eax
c0003c10:	8b 50 14             	mov    0x14(%eax),%edx
c0003c13:	83 c2 01             	add    $0x1,%edx
c0003c16:	89 50 14             	mov    %edx,0x14(%eax)
c0003c19:	a1 2c d0 01 c0       	mov    0xc001d02c,%eax
c0003c1e:	8b 40 14             	mov    0x14(%eax),%eax
c0003c21:	8b 15 2c d0 01 c0    	mov    0xc001d02c,%edx
c0003c27:	8b 4a 10             	mov    0x10(%edx),%ecx
c0003c2a:	89 c2                	mov    %eax,%edx
c0003c2c:	c1 fa 1f             	sar    $0x1f,%edx
c0003c2f:	f7 f9                	idiv   %ecx
c0003c31:	89 d0                	mov    %edx,%eax
c0003c33:	85 c0                	test   %eax,%eax
c0003c35:	75 1a                	jne    c0003c51 <timerTick+0x4c>
c0003c37:	a1 2c d0 01 c0       	mov    0xc001d02c,%eax
c0003c3c:	8b 50 0c             	mov    0xc(%eax),%edx
c0003c3f:	83 c2 01             	add    $0x1,%edx
c0003c42:	89 50 0c             	mov    %edx,0xc(%eax)
c0003c45:	a1 2c d0 01 c0       	mov    0xc001d02c,%eax
c0003c4a:	c7 40 14 00 00 00 00 	movl   $0x0,0x14(%eax)
c0003c51:	0f b6 05 0c 80 00 c0 	movzbl 0xc000800c,%eax
c0003c58:	84 c0                	test   %al,%al
c0003c5a:	74 2c                	je     c0003c88 <timerTick+0x83>
c0003c5c:	a1 2c d0 01 c0       	mov    0xc001d02c,%eax
c0003c61:	8b 50 18             	mov    0x18(%eax),%edx
c0003c64:	83 ea 01             	sub    $0x1,%edx
c0003c67:	89 50 18             	mov    %edx,0x18(%eax)
c0003c6a:	a1 2c d0 01 c0       	mov    0xc001d02c,%eax
c0003c6f:	8b 40 18             	mov    0x18(%eax),%eax
c0003c72:	85 c0                	test   %eax,%eax
c0003c74:	75 12                	jne    c0003c88 <timerTick+0x83>
c0003c76:	a1 2c d0 01 c0       	mov    0xc001d02c,%eax
c0003c7b:	8b 50 08             	mov    0x8(%eax),%edx
c0003c7e:	a1 2c d0 01 c0       	mov    0xc001d02c,%eax
c0003c83:	89 04 24             	mov    %eax,(%esp)
c0003c86:	ff d2                	call   *%edx
c0003c88:	c9                   	leave  
c0003c89:	c3                   	ret    
	...

c0003c8c <randomize>:
c0003c8c:	55                   	push   %ebp
c0003c8d:	89 e5                	mov    %esp,%ebp
c0003c8f:	83 7d 08 00          	cmpl   $0x0,0x8(%ebp)
c0003c93:	74 27                	je     c0003cbc <randomize+0x30>
c0003c95:	8b 45 08             	mov    0x8(%ebp),%eax
c0003c98:	a3 68 73 00 c0       	mov    %eax,0xc0007368
c0003c9d:	8b 45 08             	mov    0x8(%ebp),%eax
c0003ca0:	d1 e8                	shr    %eax
c0003ca2:	a3 6c 73 00 c0       	mov    %eax,0xc000736c
c0003ca7:	a1 6c 73 00 c0       	mov    0xc000736c,%eax
c0003cac:	85 c0                	test   %eax,%eax
c0003cae:	75 22                	jne    c0003cd2 <randomize+0x46>
c0003cb0:	c7 05 6c 73 00 c0 02 	movl   $0xbadb002,0xc000736c
c0003cb7:	b0 ad 0b 
c0003cba:	eb 17                	jmp    c0003cd3 <randomize+0x47>
c0003cbc:	c7 05 68 73 00 c0 ef 	movl   $0xdeadbeef,0xc0007368
c0003cc3:	be ad de 
c0003cc6:	c7 05 6c 73 00 c0 be 	movl   $0xcafebabe,0xc000736c
c0003ccd:	ba fe ca 
c0003cd0:	eb 01                	jmp    c0003cd3 <randomize+0x47>
c0003cd2:	90                   	nop
c0003cd3:	5d                   	pop    %ebp
c0003cd4:	c3                   	ret    

c0003cd5 <randomA>:
c0003cd5:	55                   	push   %ebp
c0003cd6:	89 e5                	mov    %esp,%ebp
c0003cd8:	83 ec 10             	sub    $0x10,%esp
c0003cdb:	a1 68 73 00 c0       	mov    0xc0007368,%eax
c0003ce0:	85 c0                	test   %eax,%eax
c0003ce2:	75 0a                	jne    c0003cee <randomA+0x19>
c0003ce4:	c7 05 68 73 00 c0 01 	movl   $0x1,0xc0007368
c0003ceb:	00 00 00 
c0003cee:	a1 6c 73 00 c0       	mov    0xc000736c,%eax
c0003cf3:	85 c0                	test   %eax,%eax
c0003cf5:	75 0a                	jne    c0003d01 <randomA+0x2c>
c0003cf7:	c7 05 6c 73 00 c0 01 	movl   $0x1,0xc000736c
c0003cfe:	00 00 00 
c0003d01:	a1 6c 73 00 c0       	mov    0xc000736c,%eax
c0003d06:	25 ff ff 00 00       	and    $0xffff,%eax
c0003d0b:	69 c0 69 90 00 00    	imul   $0x9069,%eax,%eax
c0003d11:	8b 15 68 73 00 c0    	mov    0xc0007368,%edx
c0003d17:	c1 ea 10             	shr    $0x10,%edx
c0003d1a:	01 d0                	add    %edx,%eax
c0003d1c:	89 45 f4             	mov    %eax,-0xc(%ebp)
c0003d1f:	a1 68 73 00 c0       	mov    0xc0007368,%eax
c0003d24:	25 ff ff 00 00       	and    $0xffff,%eax
c0003d29:	69 c0 50 46 00 00    	imul   $0x4650,%eax,%eax
c0003d2f:	8b 15 6c 73 00 c0    	mov    0xc000736c,%edx
c0003d35:	c1 ea 10             	shr    $0x10,%edx
c0003d38:	01 d0                	add    %edx,%eax
c0003d3a:	89 45 f8             	mov    %eax,-0x8(%ebp)
c0003d3d:	8b 45 f4             	mov    -0xc(%ebp),%eax
c0003d40:	c1 e0 10             	shl    $0x10,%eax
c0003d43:	03 45 f8             	add    -0x8(%ebp),%eax
c0003d46:	89 45 fc             	mov    %eax,-0x4(%ebp)
c0003d49:	8b 45 f4             	mov    -0xc(%ebp),%eax
c0003d4c:	a3 6c 73 00 c0       	mov    %eax,0xc000736c
c0003d51:	8b 45 f8             	mov    -0x8(%ebp),%eax
c0003d54:	a3 68 73 00 c0       	mov    %eax,0xc0007368
c0003d59:	8b 45 fc             	mov    -0x4(%ebp),%eax
c0003d5c:	c9                   	leave  
c0003d5d:	c3                   	ret    

c0003d5e <random>:
c0003d5e:	55                   	push   %ebp
c0003d5f:	89 e5                	mov    %esp,%ebp
c0003d61:	83 ec 10             	sub    $0x10,%esp
c0003d64:	e8 6c ff ff ff       	call   c0003cd5 <randomA>
c0003d69:	89 45 fc             	mov    %eax,-0x4(%ebp)
c0003d6c:	8b 4d fc             	mov    -0x4(%ebp),%ecx
c0003d6f:	ba 01 80 00 80       	mov    $0x80008001,%edx
c0003d74:	89 c8                	mov    %ecx,%eax
c0003d76:	f7 ea                	imul   %edx
c0003d78:	8d 04 0a             	lea    (%edx,%ecx,1),%eax
c0003d7b:	89 c2                	mov    %eax,%edx
c0003d7d:	c1 fa 0f             	sar    $0xf,%edx
c0003d80:	89 c8                	mov    %ecx,%eax
c0003d82:	c1 f8 1f             	sar    $0x1f,%eax
c0003d85:	29 c2                	sub    %eax,%edx
c0003d87:	89 d0                	mov    %edx,%eax
c0003d89:	c1 e0 10             	shl    $0x10,%eax
c0003d8c:	29 d0                	sub    %edx,%eax
c0003d8e:	89 ca                	mov    %ecx,%edx
c0003d90:	29 c2                	sub    %eax,%edx
c0003d92:	89 d0                	mov    %edx,%eax
c0003d94:	89 45 fc             	mov    %eax,-0x4(%ebp)
c0003d97:	83 7d fc 00          	cmpl   $0x0,-0x4(%ebp)
c0003d9b:	79 03                	jns    c0003da0 <random+0x42>
c0003d9d:	f7 5d fc             	negl   -0x4(%ebp)
c0003da0:	c9                   	leave  
c0003da1:	c3                   	ret    

c0003da2 <sin>:
c0003da2:	55                   	push   %ebp
c0003da3:	89 e5                	mov    %esp,%ebp
c0003da5:	53                   	push   %ebx
c0003da6:	83 ec 3c             	sub    $0x3c,%esp
c0003da9:	8b 45 08             	mov    0x8(%ebp),%eax
c0003dac:	89 45 c0             	mov    %eax,-0x40(%ebp)
c0003daf:	8b 45 0c             	mov    0xc(%ebp),%eax
c0003db2:	89 45 c4             	mov    %eax,-0x3c(%ebp)
c0003db5:	c7 45 d0 05 00 00 00 	movl   $0x5,-0x30(%ebp)
c0003dbc:	c7 45 d4 ff ff ff ff 	movl   $0xffffffff,-0x2c(%ebp)
c0003dc3:	c7 45 d8 06 00 00 00 	movl   $0x6,-0x28(%ebp)
c0003dca:	c7 45 dc 00 00 00 00 	movl   $0x0,-0x24(%ebp)
c0003dd1:	dd 45 c0             	fldl   -0x40(%ebp)
c0003dd4:	dd 5d e0             	fstpl  -0x20(%ebp)
c0003dd7:	dd 45 e0             	fldl   -0x20(%ebp)
c0003dda:	dc 4d e0             	fmull  -0x20(%ebp)
c0003ddd:	dd 5d e8             	fstpl  -0x18(%ebp)
c0003de0:	dd 45 e8             	fldl   -0x18(%ebp)
c0003de3:	dc 4d e0             	fmull  -0x20(%ebp)
c0003de6:	dd 5d f0             	fstpl  -0x10(%ebp)
c0003de9:	dd 45 c0             	fldl   -0x40(%ebp)
c0003dec:	d9 ee                	fldz   
c0003dee:	da e9                	fucompp 
c0003df0:	df e0                	fnstsw %ax
c0003df2:	f6 c4 45             	test   $0x45,%ah
c0003df5:	0f 94 c0             	sete   %al
c0003df8:	84 c0                	test   %al,%al
c0003dfa:	74 29                	je     c0003e25 <sin+0x83>
c0003dfc:	dd 45 e0             	fldl   -0x20(%ebp)
c0003dff:	d9 e0                	fchs   
c0003e01:	dd 5d e0             	fstpl  -0x20(%ebp)
c0003e04:	c7 45 d4 01 00 00 00 	movl   $0x1,-0x2c(%ebp)
c0003e0b:	dd 45 c0             	fldl   -0x40(%ebp)
c0003e0e:	d9 e0                	fchs   
c0003e10:	dd 5d c0             	fstpl  -0x40(%ebp)
c0003e13:	eb 11                	jmp    c0003e26 <sin+0x84>
c0003e15:	dd 45 c0             	fldl   -0x40(%ebp)
c0003e18:	dd 05 30 79 00 c0    	fldl   0xc0007930
c0003e1e:	de e9                	fsubrp %st,%st(1)
c0003e20:	dd 5d c0             	fstpl  -0x40(%ebp)
c0003e23:	eb 01                	jmp    c0003e26 <sin+0x84>
c0003e25:	90                   	nop
c0003e26:	dd 45 c0             	fldl   -0x40(%ebp)
c0003e29:	dd 05 30 79 00 c0    	fldl   0xc0007930
c0003e2f:	d9 c9                	fxch   %st(1)
c0003e31:	da e9                	fucompp 
c0003e33:	df e0                	fnstsw %ax
c0003e35:	9e                   	sahf   
c0003e36:	0f 97 c0             	seta   %al
c0003e39:	84 c0                	test   %al,%al
c0003e3b:	75 d8                	jne    c0003e15 <sin+0x73>
c0003e3d:	eb 53                	jmp    c0003e92 <sin+0xf0>
c0003e3f:	db 45 d4             	fildl  -0x2c(%ebp)
c0003e42:	dc 4d f0             	fmull  -0x10(%ebp)
c0003e45:	df 6d d8             	fildll -0x28(%ebp)
c0003e48:	de f9                	fdivrp %st,%st(1)
c0003e4a:	dd 45 e0             	fldl   -0x20(%ebp)
c0003e4d:	de c1                	faddp  %st,%st(1)
c0003e4f:	dd 5d e0             	fstpl  -0x20(%ebp)
c0003e52:	dd 45 f0             	fldl   -0x10(%ebp)
c0003e55:	dc 4d e8             	fmull  -0x18(%ebp)
c0003e58:	dd 5d f0             	fstpl  -0x10(%ebp)
c0003e5b:	8b 45 d0             	mov    -0x30(%ebp),%eax
c0003e5e:	83 e8 01             	sub    $0x1,%eax
c0003e61:	0f af 45 d0          	imul   -0x30(%ebp),%eax
c0003e65:	89 c2                	mov    %eax,%edx
c0003e67:	c1 fa 1f             	sar    $0x1f,%edx
c0003e6a:	8b 4d dc             	mov    -0x24(%ebp),%ecx
c0003e6d:	0f af c8             	imul   %eax,%ecx
c0003e70:	8b 5d d8             	mov    -0x28(%ebp),%ebx
c0003e73:	0f af da             	imul   %edx,%ebx
c0003e76:	01 d9                	add    %ebx,%ecx
c0003e78:	f7 65 d8             	mull   -0x28(%ebp)
c0003e7b:	01 d1                	add    %edx,%ecx
c0003e7d:	89 ca                	mov    %ecx,%edx
c0003e7f:	89 45 d8             	mov    %eax,-0x28(%ebp)
c0003e82:	89 55 dc             	mov    %edx,-0x24(%ebp)
c0003e85:	89 45 d8             	mov    %eax,-0x28(%ebp)
c0003e88:	89 55 dc             	mov    %edx,-0x24(%ebp)
c0003e8b:	f7 5d d4             	negl   -0x2c(%ebp)
c0003e8e:	83 45 d0 02          	addl   $0x2,-0x30(%ebp)
c0003e92:	83 7d d0 13          	cmpl   $0x13,-0x30(%ebp)
c0003e96:	7e a7                	jle    c0003e3f <sin+0x9d>
c0003e98:	db 45 d4             	fildl  -0x2c(%ebp)
c0003e9b:	dc 4d f0             	fmull  -0x10(%ebp)
c0003e9e:	df 6d d8             	fildll -0x28(%ebp)
c0003ea1:	de f9                	fdivrp %st,%st(1)
c0003ea3:	dd 45 e0             	fldl   -0x20(%ebp)
c0003ea6:	de c1                	faddp  %st,%st(1)
c0003ea8:	dd 5d e0             	fstpl  -0x20(%ebp)
c0003eab:	dd 45 e0             	fldl   -0x20(%ebp)
c0003eae:	83 c4 3c             	add    $0x3c,%esp
c0003eb1:	5b                   	pop    %ebx
c0003eb2:	5d                   	pop    %ebp
c0003eb3:	c3                   	ret    

c0003eb4 <sinf>:
c0003eb4:	55                   	push   %ebp
c0003eb5:	89 e5                	mov    %esp,%ebp
c0003eb7:	53                   	push   %ebx
c0003eb8:	83 ec 28             	sub    $0x28,%esp
c0003ebb:	c7 45 e4 03 00 00 00 	movl   $0x3,-0x1c(%ebp)
c0003ec2:	c7 45 e8 ff ff ff ff 	movl   $0xffffffff,-0x18(%ebp)
c0003ec9:	c7 45 ec 06 00 00 00 	movl   $0x6,-0x14(%ebp)
c0003ed0:	8b 45 08             	mov    0x8(%ebp),%eax
c0003ed3:	89 45 f0             	mov    %eax,-0x10(%ebp)
c0003ed6:	d9 45 08             	flds   0x8(%ebp)
c0003ed9:	d8 4d 08             	fmuls  0x8(%ebp)
c0003edc:	d9 5d f4             	fstps  -0xc(%ebp)
c0003edf:	d9 45 f4             	flds   -0xc(%ebp)
c0003ee2:	d8 4d 08             	fmuls  0x8(%ebp)
c0003ee5:	d9 5d f8             	fstps  -0x8(%ebp)
c0003ee8:	d9 45 08             	flds   0x8(%ebp)
c0003eeb:	d9 ee                	fldz   
c0003eed:	da e9                	fucompp 
c0003eef:	df e0                	fnstsw %ax
c0003ef1:	f6 c4 45             	test   $0x45,%ah
c0003ef4:	0f 94 c0             	sete   %al
c0003ef7:	84 c0                	test   %al,%al
c0003ef9:	74 29                	je     c0003f24 <sinf+0x70>
c0003efb:	d9 45 f0             	flds   -0x10(%ebp)
c0003efe:	d9 e0                	fchs   
c0003f00:	d9 5d f0             	fstps  -0x10(%ebp)
c0003f03:	c7 45 e8 01 00 00 00 	movl   $0x1,-0x18(%ebp)
c0003f0a:	d9 45 08             	flds   0x8(%ebp)
c0003f0d:	d9 e0                	fchs   
c0003f0f:	d9 5d 08             	fstps  0x8(%ebp)
c0003f12:	eb 11                	jmp    c0003f25 <sinf+0x71>
c0003f14:	d9 45 08             	flds   0x8(%ebp)
c0003f17:	dd 05 38 79 00 c0    	fldl   0xc0007938
c0003f1d:	de e9                	fsubrp %st,%st(1)
c0003f1f:	d9 5d 08             	fstps  0x8(%ebp)
c0003f22:	eb 01                	jmp    c0003f25 <sinf+0x71>
c0003f24:	90                   	nop
c0003f25:	d9 45 08             	flds   0x8(%ebp)
c0003f28:	dd 05 38 79 00 c0    	fldl   0xc0007938
c0003f2e:	d9 c9                	fxch   %st(1)
c0003f30:	da e9                	fucompp 
c0003f32:	df e0                	fnstsw %ax
c0003f34:	9e                   	sahf   
c0003f35:	0f 97 c0             	seta   %al
c0003f38:	84 c0                	test   %al,%al
c0003f3a:	75 d8                	jne    c0003f14 <sinf+0x60>
c0003f3c:	eb 36                	jmp    c0003f74 <sinf+0xc0>
c0003f3e:	db 45 e8             	fildl  -0x18(%ebp)
c0003f41:	d8 4d f8             	fmuls  -0x8(%ebp)
c0003f44:	db 45 ec             	fildl  -0x14(%ebp)
c0003f47:	de f9                	fdivrp %st,%st(1)
c0003f49:	d9 45 f0             	flds   -0x10(%ebp)
c0003f4c:	de c1                	faddp  %st,%st(1)
c0003f4e:	d9 5d f0             	fstps  -0x10(%ebp)
c0003f51:	d9 45 f8             	flds   -0x8(%ebp)
c0003f54:	d8 4d f4             	fmuls  -0xc(%ebp)
c0003f57:	d9 5d f8             	fstps  -0x8(%ebp)
c0003f5a:	8b 45 e4             	mov    -0x1c(%ebp),%eax
c0003f5d:	83 e8 01             	sub    $0x1,%eax
c0003f60:	0f af 45 e4          	imul   -0x1c(%ebp),%eax
c0003f64:	8b 55 ec             	mov    -0x14(%ebp),%edx
c0003f67:	0f af c2             	imul   %edx,%eax
c0003f6a:	89 45 ec             	mov    %eax,-0x14(%ebp)
c0003f6d:	f7 5d e8             	negl   -0x18(%ebp)
c0003f70:	83 45 e4 02          	addl   $0x2,-0x1c(%ebp)
c0003f74:	8b 4d ec             	mov    -0x14(%ebp),%ecx
c0003f77:	8b 45 e4             	mov    -0x1c(%ebp),%eax
c0003f7a:	83 e8 01             	sub    $0x1,%eax
c0003f7d:	0f af 45 e4          	imul   -0x1c(%ebp),%eax
c0003f81:	89 45 d4             	mov    %eax,-0x2c(%ebp)
c0003f84:	b8 ff ff ff ff       	mov    $0xffffffff,%eax
c0003f89:	ba 00 00 00 00       	mov    $0x0,%edx
c0003f8e:	f7 75 d4             	divl   -0x2c(%ebp)
c0003f91:	39 c1                	cmp    %eax,%ecx
c0003f93:	72 a9                	jb     c0003f3e <sinf+0x8a>
c0003f95:	db 45 e8             	fildl  -0x18(%ebp)
c0003f98:	d8 4d f8             	fmuls  -0x8(%ebp)
c0003f9b:	db 45 ec             	fildl  -0x14(%ebp)
c0003f9e:	de f9                	fdivrp %st,%st(1)
c0003fa0:	d8 45 f0             	fadds  -0x10(%ebp)
c0003fa3:	83 c4 28             	add    $0x28,%esp
c0003fa6:	5b                   	pop    %ebx
c0003fa7:	5d                   	pop    %ebp
c0003fa8:	c3                   	ret    

c0003fa9 <sinl>:
c0003fa9:	55                   	push   %ebp
c0003faa:	89 e5                	mov    %esp,%ebp
c0003fac:	53                   	push   %ebx
c0003fad:	83 ec 54             	sub    $0x54,%esp
c0003fb0:	c7 45 bc 03 00 00 00 	movl   $0x3,-0x44(%ebp)
c0003fb7:	c7 45 c0 ff ff ff ff 	movl   $0xffffffff,-0x40(%ebp)
c0003fbe:	c7 45 c4 06 00 00 00 	movl   $0x6,-0x3c(%ebp)
c0003fc5:	8b 45 08             	mov    0x8(%ebp),%eax
c0003fc8:	8b 55 0c             	mov    0xc(%ebp),%edx
c0003fcb:	8b 4d 10             	mov    0x10(%ebp),%ecx
c0003fce:	89 45 c8             	mov    %eax,-0x38(%ebp)
c0003fd1:	89 55 cc             	mov    %edx,-0x34(%ebp)
c0003fd4:	89 4d d0             	mov    %ecx,-0x30(%ebp)
c0003fd7:	db 6d c8             	fldt   -0x38(%ebp)
c0003fda:	db 6d c8             	fldt   -0x38(%ebp)
c0003fdd:	de c9                	fmulp  %st,%st(1)
c0003fdf:	db 7d d8             	fstpt  -0x28(%ebp)
c0003fe2:	db 6d d8             	fldt   -0x28(%ebp)
c0003fe5:	db 6d c8             	fldt   -0x38(%ebp)
c0003fe8:	de c9                	fmulp  %st,%st(1)
c0003fea:	db 7d e8             	fstpt  -0x18(%ebp)
c0003fed:	db 6d 08             	fldt   0x8(%ebp)
c0003ff0:	d9 ee                	fldz   
c0003ff2:	da e9                	fucompp 
c0003ff4:	df e0                	fnstsw %ax
c0003ff6:	f6 c4 45             	test   $0x45,%ah
c0003ff9:	0f 94 c0             	sete   %al
c0003ffc:	84 c0                	test   %al,%al
c0003ffe:	74 29                	je     c0004029 <sinl+0x80>
c0004000:	db 6d c8             	fldt   -0x38(%ebp)
c0004003:	d9 e0                	fchs   
c0004005:	db 7d c8             	fstpt  -0x38(%ebp)
c0004008:	c7 45 c0 01 00 00 00 	movl   $0x1,-0x40(%ebp)
c000400f:	db 6d 08             	fldt   0x8(%ebp)
c0004012:	d9 e0                	fchs   
c0004014:	db 7d 08             	fstpt  0x8(%ebp)
c0004017:	eb 11                	jmp    c000402a <sinl+0x81>
c0004019:	db 6d 08             	fldt   0x8(%ebp)
c000401c:	db 2d 40 79 00 c0    	fldt   0xc0007940
c0004022:	de e9                	fsubrp %st,%st(1)
c0004024:	db 7d 08             	fstpt  0x8(%ebp)
c0004027:	eb 01                	jmp    c000402a <sinl+0x81>
c0004029:	90                   	nop
c000402a:	db 6d 08             	fldt   0x8(%ebp)
c000402d:	db 2d 40 79 00 c0    	fldt   0xc0007940
c0004033:	d9 c9                	fxch   %st(1)
c0004035:	da e9                	fucompp 
c0004037:	df e0                	fnstsw %ax
c0004039:	9e                   	sahf   
c000403a:	0f 97 c0             	seta   %al
c000403d:	84 c0                	test   %al,%al
c000403f:	75 d8                	jne    c0004019 <sinl+0x70>
c0004041:	eb 3a                	jmp    c000407d <sinl+0xd4>
c0004043:	db 45 c0             	fildl  -0x40(%ebp)
c0004046:	db 6d e8             	fldt   -0x18(%ebp)
c0004049:	de c9                	fmulp  %st,%st(1)
c000404b:	db 45 c4             	fildl  -0x3c(%ebp)
c000404e:	de f9                	fdivrp %st,%st(1)
c0004050:	db 6d c8             	fldt   -0x38(%ebp)
c0004053:	de c1                	faddp  %st,%st(1)
c0004055:	db 7d c8             	fstpt  -0x38(%ebp)
c0004058:	db 6d e8             	fldt   -0x18(%ebp)
c000405b:	db 6d d8             	fldt   -0x28(%ebp)
c000405e:	de c9                	fmulp  %st,%st(1)
c0004060:	db 7d e8             	fstpt  -0x18(%ebp)
c0004063:	8b 45 bc             	mov    -0x44(%ebp),%eax
c0004066:	83 e8 01             	sub    $0x1,%eax
c0004069:	0f af 45 bc          	imul   -0x44(%ebp),%eax
c000406d:	8b 55 c4             	mov    -0x3c(%ebp),%edx
c0004070:	0f af c2             	imul   %edx,%eax
c0004073:	89 45 c4             	mov    %eax,-0x3c(%ebp)
c0004076:	f7 5d c0             	negl   -0x40(%ebp)
c0004079:	83 45 bc 02          	addl   $0x2,-0x44(%ebp)
c000407d:	8b 4d c4             	mov    -0x3c(%ebp),%ecx
c0004080:	8b 45 bc             	mov    -0x44(%ebp),%eax
c0004083:	83 e8 01             	sub    $0x1,%eax
c0004086:	0f af 45 bc          	imul   -0x44(%ebp),%eax
c000408a:	89 45 b4             	mov    %eax,-0x4c(%ebp)
c000408d:	b8 ff ff ff ff       	mov    $0xffffffff,%eax
c0004092:	ba 00 00 00 00       	mov    $0x0,%edx
c0004097:	f7 75 b4             	divl   -0x4c(%ebp)
c000409a:	39 c1                	cmp    %eax,%ecx
c000409c:	72 a5                	jb     c0004043 <sinl+0x9a>
c000409e:	db 45 c0             	fildl  -0x40(%ebp)
c00040a1:	db 6d e8             	fldt   -0x18(%ebp)
c00040a4:	de c9                	fmulp  %st,%st(1)
c00040a6:	db 45 c4             	fildl  -0x3c(%ebp)
c00040a9:	de f9                	fdivrp %st,%st(1)
c00040ab:	db 6d c8             	fldt   -0x38(%ebp)
c00040ae:	de c1                	faddp  %st,%st(1)
c00040b0:	83 c4 54             	add    $0x54,%esp
c00040b3:	5b                   	pop    %ebx
c00040b4:	5d                   	pop    %ebp
c00040b5:	c3                   	ret    
	...

c00040b8 <examineHeap>:
c00040b8:	55                   	push   %ebp
c00040b9:	89 e5                	mov    %esp,%ebp
c00040bb:	83 ec 28             	sub    $0x28,%esp
c00040be:	a1 10 80 00 c0       	mov    0xc0008010,%eax
c00040c3:	89 c2                	mov    %eax,%edx
c00040c5:	b8 4c 79 00 c0       	mov    $0xc000794c,%eax
c00040ca:	89 54 24 04          	mov    %edx,0x4(%esp)
c00040ce:	89 04 24             	mov    %eax,(%esp)
c00040d1:	e8 32 16 00 00       	call   c0005708 <printf>
c00040d6:	a1 10 80 00 c0       	mov    0xc0008010,%eax
c00040db:	89 45 f4             	mov    %eax,-0xc(%ebp)
c00040de:	eb 26                	jmp    c0004106 <examineHeap+0x4e>
c00040e0:	8b 45 f4             	mov    -0xc(%ebp),%eax
c00040e3:	8b 08                	mov    (%eax),%ecx
c00040e5:	8b 55 f4             	mov    -0xc(%ebp),%edx
c00040e8:	b8 57 79 00 c0       	mov    $0xc0007957,%eax
c00040ed:	89 4c 24 08          	mov    %ecx,0x8(%esp)
c00040f1:	89 54 24 04          	mov    %edx,0x4(%esp)
c00040f5:	89 04 24             	mov    %eax,(%esp)
c00040f8:	e8 0b 16 00 00       	call   c0005708 <printf>
c00040fd:	8b 45 f4             	mov    -0xc(%ebp),%eax
c0004100:	8b 40 08             	mov    0x8(%eax),%eax
c0004103:	89 45 f4             	mov    %eax,-0xc(%ebp)
c0004106:	83 7d f4 00          	cmpl   $0x0,-0xc(%ebp)
c000410a:	75 d4                	jne    c00040e0 <examineHeap+0x28>
c000410c:	c9                   	leave  
c000410d:	c3                   	ret    

c000410e <initHdr>:
c000410e:	55                   	push   %ebp
c000410f:	89 e5                	mov    %esp,%ebp
c0004111:	8b 45 08             	mov    0x8(%ebp),%eax
c0004114:	8b 55 0c             	mov    0xc(%ebp),%edx
c0004117:	89 10                	mov    %edx,(%eax)
c0004119:	8b 45 08             	mov    0x8(%ebp),%eax
c000411c:	c7 40 0c 00 00 00 00 	movl   $0x0,0xc(%eax)
c0004123:	8b 45 08             	mov    0x8(%ebp),%eax
c0004126:	c7 40 08 00 00 00 00 	movl   $0x0,0x8(%eax)
c000412d:	8b 45 08             	mov    0x8(%ebp),%eax
c0004130:	c6 40 04 00          	movb   $0x0,0x4(%eax)
c0004134:	8b 45 08             	mov    0x8(%ebp),%eax
c0004137:	c7 40 10 a8 be 00 af 	movl   $0xaf00bea8,0x10(%eax)
c000413e:	5d                   	pop    %ebp
c000413f:	c3                   	ret    

c0004140 <realloc>:
c0004140:	55                   	push   %ebp
c0004141:	89 e5                	mov    %esp,%ebp
c0004143:	83 ec 28             	sub    $0x28,%esp
c0004146:	c7 44 24 04 00 00 00 	movl   $0x0,0x4(%esp)
c000414d:	00 
c000414e:	8b 45 0c             	mov    0xc(%ebp),%eax
c0004151:	89 04 24             	mov    %eax,(%esp)
c0004154:	e8 87 00 00 00       	call   c00041e0 <alloc>
c0004159:	89 45 ec             	mov    %eax,-0x14(%ebp)
c000415c:	8b 45 08             	mov    0x8(%ebp),%eax
c000415f:	83 e8 14             	sub    $0x14,%eax
c0004162:	89 45 f0             	mov    %eax,-0x10(%ebp)
c0004165:	8b 45 f0             	mov    -0x10(%ebp),%eax
c0004168:	8b 00                	mov    (%eax),%eax
c000416a:	89 45 f4             	mov    %eax,-0xc(%ebp)
c000416d:	8b 55 f4             	mov    -0xc(%ebp),%edx
c0004170:	8b 45 0c             	mov    0xc(%ebp),%eax
c0004173:	39 d0                	cmp    %edx,%eax
c0004175:	76 02                	jbe    c0004179 <realloc+0x39>
c0004177:	89 d0                	mov    %edx,%eax
c0004179:	89 44 24 08          	mov    %eax,0x8(%esp)
c000417d:	8b 45 08             	mov    0x8(%ebp),%eax
c0004180:	89 44 24 04          	mov    %eax,0x4(%esp)
c0004184:	8b 45 ec             	mov    -0x14(%ebp),%eax
c0004187:	89 04 24             	mov    %eax,(%esp)
c000418a:	e8 1a 0a 00 00       	call   c0004ba9 <memcpy>
c000418f:	8b 45 08             	mov    0x8(%ebp),%eax
c0004192:	89 04 24             	mov    %eax,(%esp)
c0004195:	e8 45 02 00 00       	call   c00043df <free>
c000419a:	8b 45 ec             	mov    -0x14(%ebp),%eax
c000419d:	89 45 08             	mov    %eax,0x8(%ebp)
c00041a0:	8b 45 ec             	mov    -0x14(%ebp),%eax
c00041a3:	c9                   	leave  
c00041a4:	c3                   	ret    

c00041a5 <nalloc>:
c00041a5:	55                   	push   %ebp
c00041a6:	89 e5                	mov    %esp,%ebp
c00041a8:	83 ec 28             	sub    $0x28,%esp
c00041ab:	c7 44 24 04 00 00 00 	movl   $0x0,0x4(%esp)
c00041b2:	00 
c00041b3:	8b 45 08             	mov    0x8(%ebp),%eax
c00041b6:	89 04 24             	mov    %eax,(%esp)
c00041b9:	e8 22 00 00 00       	call   c00041e0 <alloc>
c00041be:	89 45 f4             	mov    %eax,-0xc(%ebp)
c00041c1:	8b 45 08             	mov    0x8(%ebp),%eax
c00041c4:	89 44 24 08          	mov    %eax,0x8(%esp)
c00041c8:	c7 44 24 04 00 00 00 	movl   $0x0,0x4(%esp)
c00041cf:	00 
c00041d0:	8b 45 f4             	mov    -0xc(%ebp),%eax
c00041d3:	89 04 24             	mov    %eax,(%esp)
c00041d6:	e8 43 09 00 00       	call   c0004b1e <memset>
c00041db:	8b 45 f4             	mov    -0xc(%ebp),%eax
c00041de:	c9                   	leave  
c00041df:	c3                   	ret    

c00041e0 <alloc>:
c00041e0:	55                   	push   %ebp
c00041e1:	89 e5                	mov    %esp,%ebp
c00041e3:	53                   	push   %ebx
c00041e4:	83 ec 44             	sub    $0x44,%esp
c00041e7:	8b 45 0c             	mov    0xc(%ebp),%eax
c00041ea:	88 45 d4             	mov    %al,-0x2c(%ebp)
c00041ed:	81 7d 08 00 00 10 00 	cmpl   $0x100000,0x8(%ebp)
c00041f4:	76 0a                	jbe    c0004200 <alloc+0x20>
c00041f6:	b8 00 00 00 00       	mov    $0x0,%eax
c00041fb:	e9 d9 01 00 00       	jmp    c00043d9 <alloc+0x1f9>
c0004200:	a1 40 d0 01 c0       	mov    0xc001d040,%eax
c0004205:	89 04 24             	mov    %eax,(%esp)
c0004208:	e8 7c cf ff ff       	call   c0001189 <mutexEnter>
c000420d:	a1 10 80 00 c0       	mov    0xc0008010,%eax
c0004212:	89 45 e4             	mov    %eax,-0x1c(%ebp)
c0004215:	e9 a0 01 00 00       	jmp    c00043ba <alloc+0x1da>
c000421a:	80 7d d4 01          	cmpb   $0x1,-0x2c(%ebp)
c000421e:	0f 85 88 00 00 00    	jne    c00042ac <alloc+0xcc>
c0004224:	8b 45 e4             	mov    -0x1c(%ebp),%eax
c0004227:	0f b6 40 04          	movzbl 0x4(%eax),%eax
c000422b:	84 c0                	test   %al,%al
c000422d:	0f 85 71 01 00 00    	jne    c00043a4 <alloc+0x1c4>
c0004233:	8b 45 e4             	mov    -0x1c(%ebp),%eax
c0004236:	83 c0 14             	add    $0x14,%eax
c0004239:	89 c2                	mov    %eax,%edx
c000423b:	81 e2 ff 0f 00 00    	and    $0xfff,%edx
c0004241:	b8 00 10 00 00       	mov    $0x1000,%eax
c0004246:	29 d0                	sub    %edx,%eax
c0004248:	89 45 e8             	mov    %eax,-0x18(%ebp)
c000424b:	81 65 e8 ff 0f 00 00 	andl   $0xfff,-0x18(%ebp)
c0004252:	8b 45 08             	mov    0x8(%ebp),%eax
c0004255:	8b 55 e8             	mov    -0x18(%ebp),%edx
c0004258:	8d 04 02             	lea    (%edx,%eax,1),%eax
c000425b:	89 45 ec             	mov    %eax,-0x14(%ebp)
c000425e:	8b 45 e4             	mov    -0x1c(%ebp),%eax
c0004261:	8b 00                	mov    (%eax),%eax
c0004263:	3b 45 ec             	cmp    -0x14(%ebp),%eax
c0004266:	0f 82 3b 01 00 00    	jb     c00043a7 <alloc+0x1c7>
c000426c:	c7 44 24 08 01 00 00 	movl   $0x1,0x8(%esp)
c0004273:	00 
c0004274:	8b 45 08             	mov    0x8(%ebp),%eax
c0004277:	89 44 24 04          	mov    %eax,0x4(%esp)
c000427b:	8b 45 e4             	mov    -0x1c(%ebp),%eax
c000427e:	89 04 24             	mov    %eax,(%esp)
c0004281:	e8 05 04 00 00       	call   c000468b <splitMul>
c0004286:	89 45 f0             	mov    %eax,-0x10(%ebp)
c0004289:	8b 45 f0             	mov    -0x10(%ebp),%eax
c000428c:	89 04 24             	mov    %eax,(%esp)
c000428f:	e8 3b 02 00 00       	call   c00044cf <useBlock>
c0004294:	a1 40 d0 01 c0       	mov    0xc001d040,%eax
c0004299:	89 04 24             	mov    %eax,(%esp)
c000429c:	e8 0a cf ff ff       	call   c00011ab <mutexRelease>
c00042a1:	8b 45 f0             	mov    -0x10(%ebp),%eax
c00042a4:	83 c0 14             	add    $0x14,%eax
c00042a7:	e9 2d 01 00 00       	jmp    c00043d9 <alloc+0x1f9>
c00042ac:	8b 45 e4             	mov    -0x1c(%ebp),%eax
c00042af:	8b 00                	mov    (%eax),%eax
c00042b1:	3b 45 08             	cmp    0x8(%ebp),%eax
c00042b4:	72 3a                	jb     c00042f0 <alloc+0x110>
c00042b6:	8b 45 e4             	mov    -0x1c(%ebp),%eax
c00042b9:	8b 00                	mov    (%eax),%eax
c00042bb:	8b 55 08             	mov    0x8(%ebp),%edx
c00042be:	83 c2 14             	add    $0x14,%edx
c00042c1:	39 d0                	cmp    %edx,%eax
c00042c3:	73 2b                	jae    c00042f0 <alloc+0x110>
c00042c5:	8b 45 e4             	mov    -0x1c(%ebp),%eax
c00042c8:	89 04 24             	mov    %eax,(%esp)
c00042cb:	e8 ff 01 00 00       	call   c00044cf <useBlock>
c00042d0:	3c 01                	cmp    $0x1,%al
c00042d2:	0f 84 d2 00 00 00    	je     c00043aa <alloc+0x1ca>
c00042d8:	a1 40 d0 01 c0       	mov    0xc001d040,%eax
c00042dd:	89 04 24             	mov    %eax,(%esp)
c00042e0:	e8 c6 ce ff ff       	call   c00011ab <mutexRelease>
c00042e5:	8b 45 e4             	mov    -0x1c(%ebp),%eax
c00042e8:	83 c0 14             	add    $0x14,%eax
c00042eb:	e9 e9 00 00 00       	jmp    c00043d9 <alloc+0x1f9>
c00042f0:	8b 45 e4             	mov    -0x1c(%ebp),%eax
c00042f3:	8b 00                	mov    (%eax),%eax
c00042f5:	8b 55 08             	mov    0x8(%ebp),%edx
c00042f8:	83 c2 14             	add    $0x14,%edx
c00042fb:	39 d0                	cmp    %edx,%eax
c00042fd:	72 4b                	jb     c000434a <alloc+0x16a>
c00042ff:	8b 45 e4             	mov    -0x1c(%ebp),%eax
c0004302:	0f b6 40 04          	movzbl 0x4(%eax),%eax
c0004306:	84 c0                	test   %al,%al
c0004308:	0f 85 9f 00 00 00    	jne    c00043ad <alloc+0x1cd>
c000430e:	8b 45 08             	mov    0x8(%ebp),%eax
c0004311:	89 44 24 04          	mov    %eax,0x4(%esp)
c0004315:	8b 45 e4             	mov    -0x1c(%ebp),%eax
c0004318:	89 04 24             	mov    %eax,(%esp)
c000431b:	e8 14 03 00 00       	call   c0004634 <split>
c0004320:	89 45 f4             	mov    %eax,-0xc(%ebp)
c0004323:	8b 45 f4             	mov    -0xc(%ebp),%eax
c0004326:	89 04 24             	mov    %eax,(%esp)
c0004329:	e8 a1 01 00 00       	call   c00044cf <useBlock>
c000432e:	3c 01                	cmp    $0x1,%al
c0004330:	74 7e                	je     c00043b0 <alloc+0x1d0>
c0004332:	a1 40 d0 01 c0       	mov    0xc001d040,%eax
c0004337:	89 04 24             	mov    %eax,(%esp)
c000433a:	e8 6c ce ff ff       	call   c00011ab <mutexRelease>
c000433f:	8b 45 f4             	mov    -0xc(%ebp),%eax
c0004342:	83 c0 14             	add    $0x14,%eax
c0004345:	e9 8f 00 00 00       	jmp    c00043d9 <alloc+0x1f9>
c000434a:	8b 45 e4             	mov    -0x1c(%ebp),%eax
c000434d:	8b 40 08             	mov    0x8(%eax),%eax
c0004350:	85 c0                	test   %eax,%eax
c0004352:	74 0b                	je     c000435f <alloc+0x17f>
c0004354:	8b 45 e4             	mov    -0x1c(%ebp),%eax
c0004357:	8b 40 08             	mov    0x8(%eax),%eax
c000435a:	3b 45 e4             	cmp    -0x1c(%ebp),%eax
c000435d:	75 52                	jne    c00043b1 <alloc+0x1d1>
c000435f:	8b 45 e4             	mov    -0x1c(%ebp),%eax
c0004362:	8b 40 08             	mov    0x8(%eax),%eax
c0004365:	89 c3                	mov    %eax,%ebx
c0004367:	8b 4d e4             	mov    -0x1c(%ebp),%ecx
c000436a:	a1 10 80 00 c0       	mov    0xc0008010,%eax
c000436f:	89 c2                	mov    %eax,%edx
c0004371:	b8 70 79 00 c0       	mov    $0xc0007970,%eax
c0004376:	89 5c 24 0c          	mov    %ebx,0xc(%esp)
c000437a:	89 4c 24 08          	mov    %ecx,0x8(%esp)
c000437e:	89 54 24 04          	mov    %edx,0x4(%esp)
c0004382:	89 04 24             	mov    %eax,(%esp)
c0004385:	e8 7e 13 00 00       	call   c0005708 <printf>
c000438a:	8b 45 e4             	mov    -0x1c(%ebp),%eax
c000438d:	8b 40 08             	mov    0x8(%eax),%eax
c0004390:	3b 45 e4             	cmp    -0x1c(%ebp),%eax
c0004393:	75 31                	jne    c00043c6 <alloc+0x1e6>
c0004395:	b8 ac 79 00 c0       	mov    $0xc00079ac,%eax
c000439a:	89 04 24             	mov    %eax,(%esp)
c000439d:	e8 66 13 00 00       	call   c0005708 <printf>
c00043a2:	eb 23                	jmp    c00043c7 <alloc+0x1e7>
c00043a4:	90                   	nop
c00043a5:	eb 0a                	jmp    c00043b1 <alloc+0x1d1>
c00043a7:	90                   	nop
c00043a8:	eb 07                	jmp    c00043b1 <alloc+0x1d1>
c00043aa:	90                   	nop
c00043ab:	eb 04                	jmp    c00043b1 <alloc+0x1d1>
c00043ad:	90                   	nop
c00043ae:	eb 01                	jmp    c00043b1 <alloc+0x1d1>
c00043b0:	90                   	nop
c00043b1:	8b 45 e4             	mov    -0x1c(%ebp),%eax
c00043b4:	8b 40 08             	mov    0x8(%eax),%eax
c00043b7:	89 45 e4             	mov    %eax,-0x1c(%ebp)
c00043ba:	83 7d e4 00          	cmpl   $0x0,-0x1c(%ebp)
c00043be:	0f 85 56 fe ff ff    	jne    c000421a <alloc+0x3a>
c00043c4:	eb 01                	jmp    c00043c7 <alloc+0x1e7>
c00043c6:	90                   	nop
c00043c7:	a1 40 d0 01 c0       	mov    0xc001d040,%eax
c00043cc:	89 04 24             	mov    %eax,(%esp)
c00043cf:	e8 d7 cd ff ff       	call   c00011ab <mutexRelease>
c00043d4:	b8 00 00 00 00       	mov    $0x0,%eax
c00043d9:	83 c4 44             	add    $0x44,%esp
c00043dc:	5b                   	pop    %ebx
c00043dd:	5d                   	pop    %ebp
c00043de:	c3                   	ret    

c00043df <free>:
c00043df:	55                   	push   %ebp
c00043e0:	89 e5                	mov    %esp,%ebp
c00043e2:	83 ec 28             	sub    $0x28,%esp
c00043e5:	83 7d 08 00          	cmpl   $0x0,0x8(%ebp)
c00043e9:	75 0a                	jne    c00043f5 <free+0x16>
c00043eb:	b8 ff ff ff ff       	mov    $0xffffffff,%eax
c00043f0:	e9 d8 00 00 00       	jmp    c00044cd <free+0xee>
c00043f5:	a1 40 d0 01 c0       	mov    0xc001d040,%eax
c00043fa:	89 04 24             	mov    %eax,(%esp)
c00043fd:	e8 87 cd ff ff       	call   c0001189 <mutexEnter>
c0004402:	8b 45 08             	mov    0x8(%ebp),%eax
c0004405:	83 e8 14             	sub    $0x14,%eax
c0004408:	89 45 ec             	mov    %eax,-0x14(%ebp)
c000440b:	8b 45 ec             	mov    -0x14(%ebp),%eax
c000440e:	8b 40 10             	mov    0x10(%eax),%eax
c0004411:	3d a8 be 00 af       	cmp    $0xaf00bea8,%eax
c0004416:	74 17                	je     c000442f <free+0x50>
c0004418:	a1 40 d0 01 c0       	mov    0xc001d040,%eax
c000441d:	89 04 24             	mov    %eax,(%esp)
c0004420:	e8 86 cd ff ff       	call   c00011ab <mutexRelease>
c0004425:	b8 ff ff ff ff       	mov    $0xffffffff,%eax
c000442a:	e9 9e 00 00 00       	jmp    c00044cd <free+0xee>
c000442f:	8b 45 ec             	mov    -0x14(%ebp),%eax
c0004432:	89 04 24             	mov    %eax,(%esp)
c0004435:	e8 01 01 00 00       	call   c000453b <returnBlock>
c000443a:	a1 10 80 00 c0       	mov    0xc0008010,%eax
c000443f:	89 45 f0             	mov    %eax,-0x10(%ebp)
c0004442:	eb 71                	jmp    c00044b5 <free+0xd6>
c0004444:	8b 45 ec             	mov    -0x14(%ebp),%eax
c0004447:	8b 00                	mov    (%eax),%eax
c0004449:	83 c0 14             	add    $0x14,%eax
c000444c:	03 45 ec             	add    -0x14(%ebp),%eax
c000444f:	3b 45 f0             	cmp    -0x10(%ebp),%eax
c0004452:	74 10                	je     c0004464 <free+0x85>
c0004454:	8b 45 f0             	mov    -0x10(%ebp),%eax
c0004457:	8b 00                	mov    (%eax),%eax
c0004459:	83 c0 14             	add    $0x14,%eax
c000445c:	03 45 f0             	add    -0x10(%ebp),%eax
c000445f:	3b 45 ec             	cmp    -0x14(%ebp),%eax
c0004462:	75 48                	jne    c00044ac <free+0xcd>
c0004464:	8b 45 f0             	mov    -0x10(%ebp),%eax
c0004467:	89 44 24 04          	mov    %eax,0x4(%esp)
c000446b:	8b 45 ec             	mov    -0x14(%ebp),%eax
c000446e:	89 04 24             	mov    %eax,(%esp)
c0004471:	e8 43 03 00 00       	call   c00047b9 <merge>
c0004476:	89 45 f4             	mov    %eax,-0xc(%ebp)
c0004479:	83 7d f4 00          	cmpl   $0x0,-0xc(%ebp)
c000447d:	75 21                	jne    c00044a0 <free+0xc1>
c000447f:	b8 bb 79 00 c0       	mov    $0xc00079bb,%eax
c0004484:	89 04 24             	mov    %eax,(%esp)
c0004487:	e8 7c 12 00 00       	call   c0005708 <printf>
c000448c:	a1 40 d0 01 c0       	mov    0xc001d040,%eax
c0004491:	89 04 24             	mov    %eax,(%esp)
c0004494:	e8 12 cd ff ff       	call   c00011ab <mutexRelease>
c0004499:	b8 ff ff ff ff       	mov    $0xffffffff,%eax
c000449e:	eb 2d                	jmp    c00044cd <free+0xee>
c00044a0:	8b 45 f4             	mov    -0xc(%ebp),%eax
c00044a3:	89 45 ec             	mov    %eax,-0x14(%ebp)
c00044a6:	8b 45 f4             	mov    -0xc(%ebp),%eax
c00044a9:	89 45 f0             	mov    %eax,-0x10(%ebp)
c00044ac:	8b 45 f0             	mov    -0x10(%ebp),%eax
c00044af:	8b 40 08             	mov    0x8(%eax),%eax
c00044b2:	89 45 f0             	mov    %eax,-0x10(%ebp)
c00044b5:	83 7d f0 00          	cmpl   $0x0,-0x10(%ebp)
c00044b9:	75 89                	jne    c0004444 <free+0x65>
c00044bb:	a1 40 d0 01 c0       	mov    0xc001d040,%eax
c00044c0:	89 04 24             	mov    %eax,(%esp)
c00044c3:	e8 e3 cc ff ff       	call   c00011ab <mutexRelease>
c00044c8:	b8 00 00 00 00       	mov    $0x0,%eax
c00044cd:	c9                   	leave  
c00044ce:	c3                   	ret    

c00044cf <useBlock>:
c00044cf:	55                   	push   %ebp
c00044d0:	89 e5                	mov    %esp,%ebp
c00044d2:	8b 45 08             	mov    0x8(%ebp),%eax
c00044d5:	0f b6 40 04          	movzbl 0x4(%eax),%eax
c00044d9:	84 c0                	test   %al,%al
c00044db:	75 57                	jne    c0004534 <useBlock+0x65>
c00044dd:	8b 45 08             	mov    0x8(%ebp),%eax
c00044e0:	c6 40 04 01          	movb   $0x1,0x4(%eax)
c00044e4:	8b 45 08             	mov    0x8(%ebp),%eax
c00044e7:	8b 40 0c             	mov    0xc(%eax),%eax
c00044ea:	85 c0                	test   %eax,%eax
c00044ec:	74 11                	je     c00044ff <useBlock+0x30>
c00044ee:	8b 45 08             	mov    0x8(%ebp),%eax
c00044f1:	8b 40 0c             	mov    0xc(%eax),%eax
c00044f4:	8b 55 08             	mov    0x8(%ebp),%edx
c00044f7:	8b 52 08             	mov    0x8(%edx),%edx
c00044fa:	89 50 08             	mov    %edx,0x8(%eax)
c00044fd:	eb 15                	jmp    c0004514 <useBlock+0x45>
c00044ff:	a1 10 80 00 c0       	mov    0xc0008010,%eax
c0004504:	3b 45 08             	cmp    0x8(%ebp),%eax
c0004507:	75 0b                	jne    c0004514 <useBlock+0x45>
c0004509:	8b 45 08             	mov    0x8(%ebp),%eax
c000450c:	8b 40 08             	mov    0x8(%eax),%eax
c000450f:	a3 10 80 00 c0       	mov    %eax,0xc0008010
c0004514:	8b 45 08             	mov    0x8(%ebp),%eax
c0004517:	8b 40 08             	mov    0x8(%eax),%eax
c000451a:	85 c0                	test   %eax,%eax
c000451c:	74 0f                	je     c000452d <useBlock+0x5e>
c000451e:	8b 45 08             	mov    0x8(%ebp),%eax
c0004521:	8b 40 08             	mov    0x8(%eax),%eax
c0004524:	8b 55 08             	mov    0x8(%ebp),%edx
c0004527:	8b 52 0c             	mov    0xc(%edx),%edx
c000452a:	89 50 0c             	mov    %edx,0xc(%eax)
c000452d:	b8 00 00 00 00       	mov    $0x0,%eax
c0004532:	eb 05                	jmp    c0004539 <useBlock+0x6a>
c0004534:	b8 01 00 00 00       	mov    $0x1,%eax
c0004539:	5d                   	pop    %ebp
c000453a:	c3                   	ret    

c000453b <returnBlock>:
c000453b:	55                   	push   %ebp
c000453c:	89 e5                	mov    %esp,%ebp
c000453e:	83 ec 10             	sub    $0x10,%esp
c0004541:	8b 45 08             	mov    0x8(%ebp),%eax
c0004544:	8b 40 10             	mov    0x10(%eax),%eax
c0004547:	3d a8 be 00 af       	cmp    $0xaf00bea8,%eax
c000454c:	0f 85 df 00 00 00    	jne    c0004631 <returnBlock+0xf6>
c0004552:	8b 45 08             	mov    0x8(%ebp),%eax
c0004555:	c6 40 04 00          	movb   $0x0,0x4(%eax)
c0004559:	a1 10 80 00 c0       	mov    0xc0008010,%eax
c000455e:	39 45 08             	cmp    %eax,0x8(%ebp)
c0004561:	73 2e                	jae    c0004591 <returnBlock+0x56>
c0004563:	a1 10 80 00 c0       	mov    0xc0008010,%eax
c0004568:	8b 55 08             	mov    0x8(%ebp),%edx
c000456b:	89 50 0c             	mov    %edx,0xc(%eax)
c000456e:	8b 15 10 80 00 c0    	mov    0xc0008010,%edx
c0004574:	8b 45 08             	mov    0x8(%ebp),%eax
c0004577:	89 50 08             	mov    %edx,0x8(%eax)
c000457a:	8b 45 08             	mov    0x8(%ebp),%eax
c000457d:	c7 40 0c 00 00 00 00 	movl   $0x0,0xc(%eax)
c0004584:	8b 45 08             	mov    0x8(%ebp),%eax
c0004587:	a3 10 80 00 c0       	mov    %eax,0xc0008010
c000458c:	e9 a1 00 00 00       	jmp    c0004632 <returnBlock+0xf7>
c0004591:	a1 10 80 00 c0       	mov    0xc0008010,%eax
c0004596:	89 45 fc             	mov    %eax,-0x4(%ebp)
c0004599:	e9 87 00 00 00       	jmp    c0004625 <returnBlock+0xea>
c000459e:	8b 45 fc             	mov    -0x4(%ebp),%eax
c00045a1:	8b 00                	mov    (%eax),%eax
c00045a3:	83 c0 14             	add    $0x14,%eax
c00045a6:	03 45 fc             	add    -0x4(%ebp),%eax
c00045a9:	3b 45 08             	cmp    0x8(%ebp),%eax
c00045ac:	75 20                	jne    c00045ce <returnBlock+0x93>
c00045ae:	8b 45 fc             	mov    -0x4(%ebp),%eax
c00045b1:	8b 50 08             	mov    0x8(%eax),%edx
c00045b4:	8b 45 08             	mov    0x8(%ebp),%eax
c00045b7:	89 50 08             	mov    %edx,0x8(%eax)
c00045ba:	8b 45 08             	mov    0x8(%ebp),%eax
c00045bd:	8b 55 fc             	mov    -0x4(%ebp),%edx
c00045c0:	89 50 0c             	mov    %edx,0xc(%eax)
c00045c3:	8b 45 fc             	mov    -0x4(%ebp),%eax
c00045c6:	8b 55 08             	mov    0x8(%ebp),%edx
c00045c9:	89 50 08             	mov    %edx,0x8(%eax)
c00045cc:	eb 64                	jmp    c0004632 <returnBlock+0xf7>
c00045ce:	8b 45 08             	mov    0x8(%ebp),%eax
c00045d1:	8b 00                	mov    (%eax),%eax
c00045d3:	83 c0 14             	add    $0x14,%eax
c00045d6:	03 45 08             	add    0x8(%ebp),%eax
c00045d9:	3b 45 fc             	cmp    -0x4(%ebp),%eax
c00045dc:	75 20                	jne    c00045fe <returnBlock+0xc3>
c00045de:	8b 45 08             	mov    0x8(%ebp),%eax
c00045e1:	8b 55 fc             	mov    -0x4(%ebp),%edx
c00045e4:	89 50 08             	mov    %edx,0x8(%eax)
c00045e7:	8b 45 fc             	mov    -0x4(%ebp),%eax
c00045ea:	8b 50 0c             	mov    0xc(%eax),%edx
c00045ed:	8b 45 08             	mov    0x8(%ebp),%eax
c00045f0:	89 50 0c             	mov    %edx,0xc(%eax)
c00045f3:	8b 45 fc             	mov    -0x4(%ebp),%eax
c00045f6:	8b 55 08             	mov    0x8(%ebp),%edx
c00045f9:	89 50 0c             	mov    %edx,0xc(%eax)
c00045fc:	eb 34                	jmp    c0004632 <returnBlock+0xf7>
c00045fe:	8b 45 fc             	mov    -0x4(%ebp),%eax
c0004601:	8b 40 08             	mov    0x8(%eax),%eax
c0004604:	85 c0                	test   %eax,%eax
c0004606:	75 14                	jne    c000461c <returnBlock+0xe1>
c0004608:	8b 45 fc             	mov    -0x4(%ebp),%eax
c000460b:	8b 55 08             	mov    0x8(%ebp),%edx
c000460e:	89 50 08             	mov    %edx,0x8(%eax)
c0004611:	8b 45 08             	mov    0x8(%ebp),%eax
c0004614:	8b 55 fc             	mov    -0x4(%ebp),%edx
c0004617:	89 50 0c             	mov    %edx,0xc(%eax)
c000461a:	eb 16                	jmp    c0004632 <returnBlock+0xf7>
c000461c:	8b 45 fc             	mov    -0x4(%ebp),%eax
c000461f:	8b 40 08             	mov    0x8(%eax),%eax
c0004622:	89 45 fc             	mov    %eax,-0x4(%ebp)
c0004625:	83 7d fc 00          	cmpl   $0x0,-0x4(%ebp)
c0004629:	0f 85 6f ff ff ff    	jne    c000459e <returnBlock+0x63>
c000462f:	eb 01                	jmp    c0004632 <returnBlock+0xf7>
c0004631:	90                   	nop
c0004632:	c9                   	leave  
c0004633:	c3                   	ret    

c0004634 <split>:
c0004634:	55                   	push   %ebp
c0004635:	89 e5                	mov    %esp,%ebp
c0004637:	83 ec 18             	sub    $0x18,%esp
c000463a:	8b 45 0c             	mov    0xc(%ebp),%eax
c000463d:	83 c0 14             	add    $0x14,%eax
c0004640:	03 45 08             	add    0x8(%ebp),%eax
c0004643:	89 45 fc             	mov    %eax,-0x4(%ebp)
c0004646:	8b 45 08             	mov    0x8(%ebp),%eax
c0004649:	8b 00                	mov    (%eax),%eax
c000464b:	2b 45 0c             	sub    0xc(%ebp),%eax
c000464e:	83 e8 14             	sub    $0x14,%eax
c0004651:	89 44 24 04          	mov    %eax,0x4(%esp)
c0004655:	8b 45 fc             	mov    -0x4(%ebp),%eax
c0004658:	89 04 24             	mov    %eax,(%esp)
c000465b:	e8 ae fa ff ff       	call   c000410e <initHdr>
c0004660:	8b 45 fc             	mov    -0x4(%ebp),%eax
c0004663:	8b 55 08             	mov    0x8(%ebp),%edx
c0004666:	89 50 0c             	mov    %edx,0xc(%eax)
c0004669:	8b 45 08             	mov    0x8(%ebp),%eax
c000466c:	8b 50 08             	mov    0x8(%eax),%edx
c000466f:	8b 45 fc             	mov    -0x4(%ebp),%eax
c0004672:	89 50 08             	mov    %edx,0x8(%eax)
c0004675:	8b 45 08             	mov    0x8(%ebp),%eax
c0004678:	8b 55 fc             	mov    -0x4(%ebp),%edx
c000467b:	89 50 08             	mov    %edx,0x8(%eax)
c000467e:	8b 45 08             	mov    0x8(%ebp),%eax
c0004681:	8b 55 0c             	mov    0xc(%ebp),%edx
c0004684:	89 10                	mov    %edx,(%eax)
c0004686:	8b 45 08             	mov    0x8(%ebp),%eax
c0004689:	c9                   	leave  
c000468a:	c3                   	ret    

c000468b <splitMul>:
c000468b:	55                   	push   %ebp
c000468c:	89 e5                	mov    %esp,%ebp
c000468e:	53                   	push   %ebx
c000468f:	83 ec 2c             	sub    $0x2c,%esp
c0004692:	8b 45 10             	mov    0x10(%ebp),%eax
c0004695:	88 45 d8             	mov    %al,-0x28(%ebp)
c0004698:	80 7d d8 00          	cmpb   $0x0,-0x28(%ebp)
c000469c:	0f 84 ff 00 00 00    	je     c00047a1 <splitMul+0x116>
c00046a2:	8b 45 08             	mov    0x8(%ebp),%eax
c00046a5:	83 c0 14             	add    $0x14,%eax
c00046a8:	25 ff 0f 00 00       	and    $0xfff,%eax
c00046ad:	85 c0                	test   %eax,%eax
c00046af:	75 17                	jne    c00046c8 <splitMul+0x3d>
c00046b1:	8b 45 0c             	mov    0xc(%ebp),%eax
c00046b4:	89 44 24 04          	mov    %eax,0x4(%esp)
c00046b8:	8b 45 08             	mov    0x8(%ebp),%eax
c00046bb:	89 04 24             	mov    %eax,(%esp)
c00046be:	e8 71 ff ff ff       	call   c0004634 <split>
c00046c3:	e9 eb 00 00 00       	jmp    c00047b3 <splitMul+0x128>
c00046c8:	8b 45 08             	mov    0x8(%ebp),%eax
c00046cb:	83 c0 14             	add    $0x14,%eax
c00046ce:	25 ff 0f 00 00       	and    $0xfff,%eax
c00046d3:	85 c0                	test   %eax,%eax
c00046d5:	0f 84 c4 00 00 00    	je     c000479f <splitMul+0x114>
c00046db:	8b 45 08             	mov    0x8(%ebp),%eax
c00046de:	83 c0 28             	add    $0x28,%eax
c00046e1:	89 45 e4             	mov    %eax,-0x1c(%ebp)
c00046e4:	8b 45 e4             	mov    -0x1c(%ebp),%eax
c00046e7:	89 c2                	mov    %eax,%edx
c00046e9:	81 e2 ff 0f 00 00    	and    $0xfff,%edx
c00046ef:	b8 00 10 00 00       	mov    $0x1000,%eax
c00046f4:	29 d0                	sub    %edx,%eax
c00046f6:	89 45 e8             	mov    %eax,-0x18(%ebp)
c00046f9:	8b 45 08             	mov    0x8(%ebp),%eax
c00046fc:	83 c0 14             	add    $0x14,%eax
c00046ff:	89 45 e0             	mov    %eax,-0x20(%ebp)
c0004702:	8b 45 e8             	mov    -0x18(%ebp),%eax
c0004705:	01 45 e0             	add    %eax,-0x20(%ebp)
c0004708:	8b 45 e0             	mov    -0x20(%ebp),%eax
c000470b:	89 45 ec             	mov    %eax,-0x14(%ebp)
c000470e:	8b 45 08             	mov    0x8(%ebp),%eax
c0004711:	8b 40 08             	mov    0x8(%eax),%eax
c0004714:	89 45 f0             	mov    %eax,-0x10(%ebp)
c0004717:	8b 45 08             	mov    0x8(%ebp),%eax
c000471a:	8b 10                	mov    (%eax),%edx
c000471c:	8b 4d 08             	mov    0x8(%ebp),%ecx
c000471f:	8b 45 ec             	mov    -0x14(%ebp),%eax
c0004722:	89 cb                	mov    %ecx,%ebx
c0004724:	29 c3                	sub    %eax,%ebx
c0004726:	89 d8                	mov    %ebx,%eax
c0004728:	8d 04 02             	lea    (%edx,%eax,1),%eax
c000472b:	89 45 f4             	mov    %eax,-0xc(%ebp)
c000472e:	8b 45 f4             	mov    -0xc(%ebp),%eax
c0004731:	89 44 24 04          	mov    %eax,0x4(%esp)
c0004735:	8b 45 ec             	mov    -0x14(%ebp),%eax
c0004738:	89 04 24             	mov    %eax,(%esp)
c000473b:	e8 ce f9 ff ff       	call   c000410e <initHdr>
c0004740:	8b 55 ec             	mov    -0x14(%ebp),%edx
c0004743:	8b 45 08             	mov    0x8(%ebp),%eax
c0004746:	83 c0 14             	add    $0x14,%eax
c0004749:	89 d1                	mov    %edx,%ecx
c000474b:	29 c1                	sub    %eax,%ecx
c000474d:	89 c8                	mov    %ecx,%eax
c000474f:	89 c2                	mov    %eax,%edx
c0004751:	8b 45 08             	mov    0x8(%ebp),%eax
c0004754:	89 10                	mov    %edx,(%eax)
c0004756:	8b 45 08             	mov    0x8(%ebp),%eax
c0004759:	8b 55 ec             	mov    -0x14(%ebp),%edx
c000475c:	89 50 08             	mov    %edx,0x8(%eax)
c000475f:	8b 45 ec             	mov    -0x14(%ebp),%eax
c0004762:	8b 55 08             	mov    0x8(%ebp),%edx
c0004765:	89 50 0c             	mov    %edx,0xc(%eax)
c0004768:	8b 45 ec             	mov    -0x14(%ebp),%eax
c000476b:	8b 55 f0             	mov    -0x10(%ebp),%edx
c000476e:	89 50 08             	mov    %edx,0x8(%eax)
c0004771:	8b 45 ec             	mov    -0x14(%ebp),%eax
c0004774:	8b 00                	mov    (%eax),%eax
c0004776:	8b 55 0c             	mov    0xc(%ebp),%edx
c0004779:	83 c2 14             	add    $0x14,%edx
c000477c:	39 d0                	cmp    %edx,%eax
c000477e:	76 1a                	jbe    c000479a <splitMul+0x10f>
c0004780:	8b 45 0c             	mov    0xc(%ebp),%eax
c0004783:	89 44 24 04          	mov    %eax,0x4(%esp)
c0004787:	8b 45 ec             	mov    -0x14(%ebp),%eax
c000478a:	89 04 24             	mov    %eax,(%esp)
c000478d:	e8 a2 fe ff ff       	call   c0004634 <split>
c0004792:	89 45 f8             	mov    %eax,-0x8(%ebp)
c0004795:	8b 45 f8             	mov    -0x8(%ebp),%eax
c0004798:	eb 19                	jmp    c00047b3 <splitMul+0x128>
c000479a:	8b 45 ec             	mov    -0x14(%ebp),%eax
c000479d:	eb 14                	jmp    c00047b3 <splitMul+0x128>
c000479f:	eb 12                	jmp    c00047b3 <splitMul+0x128>
c00047a1:	8b 45 0c             	mov    0xc(%ebp),%eax
c00047a4:	89 44 24 04          	mov    %eax,0x4(%esp)
c00047a8:	8b 45 08             	mov    0x8(%ebp),%eax
c00047ab:	89 04 24             	mov    %eax,(%esp)
c00047ae:	e8 81 fe ff ff       	call   c0004634 <split>
c00047b3:	83 c4 2c             	add    $0x2c,%esp
c00047b6:	5b                   	pop    %ebx
c00047b7:	5d                   	pop    %ebp
c00047b8:	c3                   	ret    

c00047b9 <merge>:
c00047b9:	55                   	push   %ebp
c00047ba:	89 e5                	mov    %esp,%ebp
c00047bc:	83 ec 10             	sub    $0x10,%esp
c00047bf:	8b 45 08             	mov    0x8(%ebp),%eax
c00047c2:	8b 40 10             	mov    0x10(%eax),%eax
c00047c5:	3d a8 be 00 af       	cmp    $0xaf00bea8,%eax
c00047ca:	75 0d                	jne    c00047d9 <merge+0x20>
c00047cc:	8b 45 0c             	mov    0xc(%ebp),%eax
c00047cf:	8b 40 10             	mov    0x10(%eax),%eax
c00047d2:	3d a8 be 00 af       	cmp    $0xaf00bea8,%eax
c00047d7:	74 07                	je     c00047e0 <merge+0x27>
c00047d9:	b8 00 00 00 00       	mov    $0x0,%eax
c00047de:	eb 6a                	jmp    c000484a <merge+0x91>
c00047e0:	8b 45 08             	mov    0x8(%ebp),%eax
c00047e3:	8b 40 08             	mov    0x8(%eax),%eax
c00047e6:	3b 45 0c             	cmp    0xc(%ebp),%eax
c00047e9:	74 12                	je     c00047fd <merge+0x44>
c00047eb:	8b 45 0c             	mov    0xc(%ebp),%eax
c00047ee:	8b 40 08             	mov    0x8(%eax),%eax
c00047f1:	3b 45 08             	cmp    0x8(%ebp),%eax
c00047f4:	74 07                	je     c00047fd <merge+0x44>
c00047f6:	b8 00 00 00 00       	mov    $0x0,%eax
c00047fb:	eb 4d                	jmp    c000484a <merge+0x91>
c00047fd:	8b 45 08             	mov    0x8(%ebp),%eax
c0004800:	8b 00                	mov    (%eax),%eax
c0004802:	83 c0 14             	add    $0x14,%eax
c0004805:	03 45 08             	add    0x8(%ebp),%eax
c0004808:	3b 45 0c             	cmp    0xc(%ebp),%eax
c000480b:	75 12                	jne    c000481f <merge+0x66>
c000480d:	8b 45 08             	mov    0x8(%ebp),%eax
c0004810:	89 45 fc             	mov    %eax,-0x4(%ebp)
c0004813:	8b 45 0c             	mov    0xc(%ebp),%eax
c0004816:	89 45 08             	mov    %eax,0x8(%ebp)
c0004819:	8b 45 fc             	mov    -0x4(%ebp),%eax
c000481c:	89 45 0c             	mov    %eax,0xc(%ebp)
c000481f:	8b 45 0c             	mov    0xc(%ebp),%eax
c0004822:	8b 10                	mov    (%eax),%edx
c0004824:	8b 45 08             	mov    0x8(%ebp),%eax
c0004827:	8b 00                	mov    (%eax),%eax
c0004829:	8d 04 02             	lea    (%edx,%eax,1),%eax
c000482c:	8d 50 14             	lea    0x14(%eax),%edx
c000482f:	8b 45 0c             	mov    0xc(%ebp),%eax
c0004832:	89 10                	mov    %edx,(%eax)
c0004834:	8b 45 08             	mov    0x8(%ebp),%eax
c0004837:	8b 50 08             	mov    0x8(%eax),%edx
c000483a:	8b 45 0c             	mov    0xc(%ebp),%eax
c000483d:	89 50 08             	mov    %edx,0x8(%eax)
c0004840:	8b 45 0c             	mov    0xc(%ebp),%eax
c0004843:	c6 40 04 00          	movb   $0x0,0x4(%eax)
c0004847:	8b 45 0c             	mov    0xc(%ebp),%eax
c000484a:	c9                   	leave  
c000484b:	c3                   	ret    

c000484c <heapAddBlocks>:
c000484c:	55                   	push   %ebp
c000484d:	89 e5                	mov    %esp,%ebp
c000484f:	83 ec 18             	sub    $0x18,%esp
c0004852:	a1 40 d0 01 c0       	mov    0xc001d040,%eax
c0004857:	89 04 24             	mov    %eax,(%esp)
c000485a:	e8 2a c9 ff ff       	call   c0001189 <mutexEnter>
c000485f:	e9 80 00 00 00       	jmp    c00048e4 <heapAddBlocks+0x98>
c0004864:	8b 45 0c             	mov    0xc(%ebp),%eax
c0004867:	3d 00 00 10 00       	cmp    $0x100000,%eax
c000486c:	7e 05                	jle    c0004873 <heapAddBlocks+0x27>
c000486e:	b8 00 00 10 00       	mov    $0x100000,%eax
c0004873:	8d 50 ec             	lea    -0x14(%eax),%edx
c0004876:	8b 45 08             	mov    0x8(%ebp),%eax
c0004879:	89 54 24 04          	mov    %edx,0x4(%esp)
c000487d:	89 04 24             	mov    %eax,(%esp)
c0004880:	e8 89 f8 ff ff       	call   c000410e <initHdr>
c0004885:	8b 45 0c             	mov    0xc(%ebp),%eax
c0004888:	3d 00 00 10 00       	cmp    $0x100000,%eax
c000488d:	7e 05                	jle    c0004894 <heapAddBlocks+0x48>
c000488f:	b8 00 00 10 00       	mov    $0x100000,%eax
c0004894:	29 45 0c             	sub    %eax,0xc(%ebp)
c0004897:	a1 10 80 00 c0       	mov    0xc0008010,%eax
c000489c:	85 c0                	test   %eax,%eax
c000489e:	75 0a                	jne    c00048aa <heapAddBlocks+0x5e>
c00048a0:	8b 45 08             	mov    0x8(%ebp),%eax
c00048a3:	a3 10 80 00 c0       	mov    %eax,0xc0008010
c00048a8:	eb 28                	jmp    c00048d2 <heapAddBlocks+0x86>
c00048aa:	a1 40 d0 01 c0       	mov    0xc001d040,%eax
c00048af:	89 04 24             	mov    %eax,(%esp)
c00048b2:	e8 f4 c8 ff ff       	call   c00011ab <mutexRelease>
c00048b7:	8b 45 08             	mov    0x8(%ebp),%eax
c00048ba:	83 c0 14             	add    $0x14,%eax
c00048bd:	89 04 24             	mov    %eax,(%esp)
c00048c0:	e8 1a fb ff ff       	call   c00043df <free>
c00048c5:	a1 40 d0 01 c0       	mov    0xc001d040,%eax
c00048ca:	89 04 24             	mov    %eax,(%esp)
c00048cd:	e8 b7 c8 ff ff       	call   c0001189 <mutexEnter>
c00048d2:	8b 45 0c             	mov    0xc(%ebp),%eax
c00048d5:	3d 00 00 10 00       	cmp    $0x100000,%eax
c00048da:	7e 05                	jle    c00048e1 <heapAddBlocks+0x95>
c00048dc:	b8 00 00 10 00       	mov    $0x100000,%eax
c00048e1:	01 45 08             	add    %eax,0x8(%ebp)
c00048e4:	83 7d 0c 00          	cmpl   $0x0,0xc(%ebp)
c00048e8:	0f 8f 76 ff ff ff    	jg     c0004864 <heapAddBlocks+0x18>
c00048ee:	a1 40 d0 01 c0       	mov    0xc001d040,%eax
c00048f3:	89 04 24             	mov    %eax,(%esp)
c00048f6:	e8 b0 c8 ff ff       	call   c00011ab <mutexRelease>
c00048fb:	c9                   	leave  
c00048fc:	c3                   	ret    

c00048fd <heapCoreBlocks>:
c00048fd:	55                   	push   %ebp
c00048fe:	89 e5                	mov    %esp,%ebp
c0004900:	83 ec 28             	sub    $0x28,%esp
c0004903:	a1 40 d0 01 c0       	mov    0xc001d040,%eax
c0004908:	89 04 24             	mov    %eax,(%esp)
c000490b:	e8 79 c8 ff ff       	call   c0001189 <mutexEnter>
c0004910:	8b 45 08             	mov    0x8(%ebp),%eax
c0004913:	89 45 f4             	mov    %eax,-0xc(%ebp)
c0004916:	8b 45 0c             	mov    0xc(%ebp),%eax
c0004919:	83 e8 14             	sub    $0x14,%eax
c000491c:	89 44 24 04          	mov    %eax,0x4(%esp)
c0004920:	8b 45 f4             	mov    -0xc(%ebp),%eax
c0004923:	89 04 24             	mov    %eax,(%esp)
c0004926:	e8 e3 f7 ff ff       	call   c000410e <initHdr>
c000492b:	8b 45 f4             	mov    -0xc(%ebp),%eax
c000492e:	a3 10 80 00 c0       	mov    %eax,0xc0008010
c0004933:	a1 40 d0 01 c0       	mov    0xc001d040,%eax
c0004938:	89 04 24             	mov    %eax,(%esp)
c000493b:	e8 6b c8 ff ff       	call   c00011ab <mutexRelease>
c0004940:	c9                   	leave  
c0004941:	c3                   	ret    
c0004942:	90                   	nop
c0004943:	90                   	nop

c0004944 <claimPage>:
c0004944:	55                   	push   %ebp
c0004945:	89 e5                	mov    %esp,%ebp
c0004947:	83 ec 04             	sub    $0x4,%esp
c000494a:	8b 45 0c             	mov    0xc(%ebp),%eax
c000494d:	66 89 45 fc          	mov    %ax,-0x4(%ebp)
c0004951:	8b 45 08             	mov    0x8(%ebp),%eax
c0004954:	0f b7 84 00 60 d0 01 	movzwl -0x3ffe2fa0(%eax,%eax,1),%eax
c000495b:	c0 
c000495c:	66 85 c0             	test   %ax,%ax
c000495f:	75 09                	jne    c000496a <claimPage+0x26>
c0004961:	81 7d 08 00 00 10 00 	cmpl   $0x100000,0x8(%ebp)
c0004968:	76 07                	jbe    c0004971 <claimPage+0x2d>
c000496a:	b8 00 00 00 00       	mov    $0x0,%eax
c000496f:	eb 14                	jmp    c0004985 <claimPage+0x41>
c0004971:	8b 45 08             	mov    0x8(%ebp),%eax
c0004974:	0f b7 55 fc          	movzwl -0x4(%ebp),%edx
c0004978:	66 89 94 00 60 d0 01 	mov    %dx,-0x3ffe2fa0(%eax,%eax,1)
c000497f:	c0 
c0004980:	b8 01 00 00 00       	mov    $0x1,%eax
c0004985:	c9                   	leave  
c0004986:	c3                   	ret    

c0004987 <allocPage>:
c0004987:	55                   	push   %ebp
c0004988:	89 e5                	mov    %esp,%ebp
c000498a:	83 ec 38             	sub    $0x38,%esp
c000498d:	8b 45 08             	mov    0x8(%ebp),%eax
c0004990:	66 89 45 e4          	mov    %ax,-0x1c(%ebp)
c0004994:	a1 14 80 00 c0       	mov    0xc0008014,%eax
c0004999:	85 c0                	test   %eax,%eax
c000499b:	74 18                	je     c00049b5 <allocPage+0x2e>
c000499d:	a1 14 80 00 c0       	mov    0xc0008014,%eax
c00049a2:	89 c2                	mov    %eax,%edx
c00049a4:	b8 c9 79 00 c0       	mov    $0xc00079c9,%eax
c00049a9:	89 54 24 04          	mov    %edx,0x4(%esp)
c00049ad:	89 04 24             	mov    %eax,(%esp)
c00049b0:	e8 53 0d 00 00       	call   c0005708 <printf>
c00049b5:	a1 14 80 00 c0       	mov    0xc0008014,%eax
c00049ba:	89 04 24             	mov    %eax,(%esp)
c00049bd:	e8 c7 c7 ff ff       	call   c0001189 <mutexEnter>
c00049c2:	c7 44 24 04 00 00 00 	movl   $0x0,0x4(%esp)
c00049c9:	00 
c00049ca:	c7 04 24 08 00 00 00 	movl   $0x8,(%esp)
c00049d1:	e8 0a f8 ff ff       	call   c00041e0 <alloc>
c00049d6:	89 45 f4             	mov    %eax,-0xc(%ebp)
c00049d9:	83 7d f4 00          	cmpl   $0x0,-0xc(%ebp)
c00049dd:	75 0c                	jne    c00049eb <allocPage+0x64>
c00049df:	c7 04 24 d9 79 00 c0 	movl   $0xc00079d9,(%esp)
c00049e6:	e8 cd 0b 00 00       	call   c00055b8 <panic>
c00049eb:	c7 45 f0 00 00 00 00 	movl   $0x0,-0x10(%ebp)
c00049f2:	eb 51                	jmp    c0004a45 <allocPage+0xbe>
c00049f4:	8b 45 f0             	mov    -0x10(%ebp),%eax
c00049f7:	0f b7 84 00 60 d0 01 	movzwl -0x3ffe2fa0(%eax,%eax,1),%eax
c00049fe:	c0 
c00049ff:	66 85 c0             	test   %ax,%ax
c0004a02:	75 3d                	jne    c0004a41 <allocPage+0xba>
c0004a04:	0f b7 45 e4          	movzwl -0x1c(%ebp),%eax
c0004a08:	89 44 24 04          	mov    %eax,0x4(%esp)
c0004a0c:	8b 45 f0             	mov    -0x10(%ebp),%eax
c0004a0f:	89 04 24             	mov    %eax,(%esp)
c0004a12:	e8 2d ff ff ff       	call   c0004944 <claimPage>
c0004a17:	84 c0                	test   %al,%al
c0004a19:	74 26                	je     c0004a41 <allocPage+0xba>
c0004a1b:	8b 45 f0             	mov    -0x10(%ebp),%eax
c0004a1e:	89 c2                	mov    %eax,%edx
c0004a20:	c1 e2 0c             	shl    $0xc,%edx
c0004a23:	8b 45 f4             	mov    -0xc(%ebp),%eax
c0004a26:	89 10                	mov    %edx,(%eax)
c0004a28:	8b 45 f4             	mov    -0xc(%ebp),%eax
c0004a2b:	c6 40 04 01          	movb   $0x1,0x4(%eax)
c0004a2f:	a1 14 80 00 c0       	mov    0xc0008014,%eax
c0004a34:	89 04 24             	mov    %eax,(%esp)
c0004a37:	e8 6f c7 ff ff       	call   c00011ab <mutexRelease>
c0004a3c:	8b 45 f4             	mov    -0xc(%ebp),%eax
c0004a3f:	eb 2d                	jmp    c0004a6e <allocPage+0xe7>
c0004a41:	83 45 f0 01          	addl   $0x1,-0x10(%ebp)
c0004a45:	81 7d f0 ff ff 0f 00 	cmpl   $0xfffff,-0x10(%ebp)
c0004a4c:	76 a6                	jbe    c00049f4 <allocPage+0x6d>
c0004a4e:	8b 45 f4             	mov    -0xc(%ebp),%eax
c0004a51:	c7 00 00 00 00 00    	movl   $0x0,(%eax)
c0004a57:	8b 45 f4             	mov    -0xc(%ebp),%eax
c0004a5a:	c6 40 04 00          	movb   $0x0,0x4(%eax)
c0004a5e:	a1 14 80 00 c0       	mov    0xc0008014,%eax
c0004a63:	89 04 24             	mov    %eax,(%esp)
c0004a66:	e8 40 c7 ff ff       	call   c00011ab <mutexRelease>
c0004a6b:	8b 45 f4             	mov    -0xc(%ebp),%eax
c0004a6e:	c9                   	leave  
c0004a6f:	c3                   	ret    

c0004a70 <freePage>:
c0004a70:	55                   	push   %ebp
c0004a71:	89 e5                	mov    %esp,%ebp
c0004a73:	83 ec 04             	sub    $0x4,%esp
c0004a76:	8b 45 0c             	mov    0xc(%ebp),%eax
c0004a79:	66 89 45 fc          	mov    %ax,-0x4(%ebp)
c0004a7d:	8b 45 08             	mov    0x8(%ebp),%eax
c0004a80:	c1 e8 0c             	shr    $0xc,%eax
c0004a83:	0f b7 84 00 60 d0 01 	movzwl -0x3ffe2fa0(%eax,%eax,1),%eax
c0004a8a:	c0 
c0004a8b:	66 3b 45 fc          	cmp    -0x4(%ebp),%ax
c0004a8f:	75 0f                	jne    c0004aa0 <freePage+0x30>
c0004a91:	8b 45 08             	mov    0x8(%ebp),%eax
c0004a94:	66 c7 84 00 60 d0 01 	movw   $0x0,-0x3ffe2fa0(%eax,%eax,1)
c0004a9b:	c0 00 00 
c0004a9e:	eb 01                	jmp    c0004aa1 <freePage+0x31>
c0004aa0:	90                   	nop
c0004aa1:	c9                   	leave  
c0004aa2:	c3                   	ret    
c0004aa3:	90                   	nop

c0004aa4 <initHeap>:
c0004aa4:	55                   	push   %ebp
c0004aa5:	89 e5                	mov    %esp,%ebp
c0004aa7:	83 ec 28             	sub    $0x28,%esp
c0004aaa:	c7 45 f0 00 00 00 00 	movl   $0x0,-0x10(%ebp)
c0004ab1:	c7 45 f4 00 01 00 00 	movl   $0x100,-0xc(%ebp)
c0004ab8:	eb 4c                	jmp    c0004b06 <initHeap+0x62>
c0004aba:	8b 45 f4             	mov    -0xc(%ebp),%eax
c0004abd:	0f b7 84 00 60 d0 01 	movzwl -0x3ffe2fa0(%eax,%eax,1),%eax
c0004ac4:	c0 
c0004ac5:	66 85 c0             	test   %ax,%ax
c0004ac8:	75 38                	jne    c0004b02 <initHeap+0x5e>
c0004aca:	8b 45 f4             	mov    -0xc(%ebp),%eax
c0004acd:	c1 e0 0c             	shl    $0xc,%eax
c0004ad0:	c7 44 24 04 00 10 00 	movl   $0x1000,0x4(%esp)
c0004ad7:	00 
c0004ad8:	89 04 24             	mov    %eax,(%esp)
c0004adb:	e8 6c fd ff ff       	call   c000484c <heapAddBlocks>
c0004ae0:	81 45 f0 00 10 00 00 	addl   $0x1000,-0x10(%ebp)
c0004ae7:	8b 45 f4             	mov    -0xc(%ebp),%eax
c0004aea:	c7 44 24 04 02 00 00 	movl   $0x2,0x4(%esp)
c0004af1:	00 
c0004af2:	89 04 24             	mov    %eax,(%esp)
c0004af5:	e8 4a fe ff ff       	call   c0004944 <claimPage>
c0004afa:	8b 45 08             	mov    0x8(%ebp),%eax
c0004afd:	3b 45 f0             	cmp    -0x10(%ebp),%eax
c0004b00:	7e 0f                	jle    c0004b11 <initHeap+0x6d>
c0004b02:	83 45 f4 01          	addl   $0x1,-0xc(%ebp)
c0004b06:	81 7d f4 ff ff 0f 00 	cmpl   $0xfffff,-0xc(%ebp)
c0004b0d:	7e ab                	jle    c0004aba <initHeap+0x16>
c0004b0f:	eb 01                	jmp    c0004b12 <initHeap+0x6e>
c0004b11:	90                   	nop
c0004b12:	e8 74 0a 00 00       	call   c000558b <initPaging>
c0004b17:	b8 00 00 00 00       	mov    $0x0,%eax
c0004b1c:	c9                   	leave  
c0004b1d:	c3                   	ret    

c0004b1e <memset>:
c0004b1e:	55                   	push   %ebp
c0004b1f:	89 e5                	mov    %esp,%ebp
c0004b21:	53                   	push   %ebx
c0004b22:	83 ec 10             	sub    $0x10,%esp
c0004b25:	83 7d 10 00          	cmpl   $0x0,0x10(%ebp)
c0004b29:	74 74                	je     c0004b9f <memset+0x81>
c0004b2b:	81 65 0c ff 00 00 00 	andl   $0xff,0xc(%ebp)
c0004b32:	8b 45 0c             	mov    0xc(%ebp),%eax
c0004b35:	89 45 f4             	mov    %eax,-0xc(%ebp)
c0004b38:	c6 45 fb 08          	movb   $0x8,-0x5(%ebp)
c0004b3c:	eb 1c                	jmp    c0004b5a <memset+0x3c>
c0004b3e:	0f be 45 fb          	movsbl -0x5(%ebp),%eax
c0004b42:	8b 55 0c             	mov    0xc(%ebp),%edx
c0004b45:	89 d3                	mov    %edx,%ebx
c0004b47:	89 c1                	mov    %eax,%ecx
c0004b49:	d3 e3                	shl    %cl,%ebx
c0004b4b:	89 d8                	mov    %ebx,%eax
c0004b4d:	09 45 f4             	or     %eax,-0xc(%ebp)
c0004b50:	0f b6 45 fb          	movzbl -0x5(%ebp),%eax
c0004b54:	83 c0 08             	add    $0x8,%eax
c0004b57:	88 45 fb             	mov    %al,-0x5(%ebp)
c0004b5a:	80 7d fb 1f          	cmpb   $0x1f,-0x5(%ebp)
c0004b5e:	7e de                	jle    c0004b3e <memset+0x20>
c0004b60:	eb 10                	jmp    c0004b72 <memset+0x54>
c0004b62:	8b 45 08             	mov    0x8(%ebp),%eax
c0004b65:	8b 55 f4             	mov    -0xc(%ebp),%edx
c0004b68:	89 10                	mov    %edx,(%eax)
c0004b6a:	83 45 08 04          	addl   $0x4,0x8(%ebp)
c0004b6e:	83 6d 10 04          	subl   $0x4,0x10(%ebp)
c0004b72:	83 7d 10 03          	cmpl   $0x3,0x10(%ebp)
c0004b76:	77 ea                	ja     c0004b62 <memset+0x44>
c0004b78:	83 7d 10 01          	cmpl   $0x1,0x10(%ebp)
c0004b7c:	76 11                	jbe    c0004b8f <memset+0x71>
c0004b7e:	8b 45 08             	mov    0x8(%ebp),%eax
c0004b81:	8b 55 f4             	mov    -0xc(%ebp),%edx
c0004b84:	66 89 10             	mov    %dx,(%eax)
c0004b87:	83 45 08 02          	addl   $0x2,0x8(%ebp)
c0004b8b:	83 6d 10 02          	subl   $0x2,0x10(%ebp)
c0004b8f:	83 7d 10 00          	cmpl   $0x0,0x10(%ebp)
c0004b93:	74 0d                	je     c0004ba2 <memset+0x84>
c0004b95:	8b 45 08             	mov    0x8(%ebp),%eax
c0004b98:	8b 55 f4             	mov    -0xc(%ebp),%edx
c0004b9b:	88 10                	mov    %dl,(%eax)
c0004b9d:	eb 04                	jmp    c0004ba3 <memset+0x85>
c0004b9f:	90                   	nop
c0004ba0:	eb 01                	jmp    c0004ba3 <memset+0x85>
c0004ba2:	90                   	nop
c0004ba3:	83 c4 10             	add    $0x10,%esp
c0004ba6:	5b                   	pop    %ebx
c0004ba7:	5d                   	pop    %ebp
c0004ba8:	c3                   	ret    

c0004ba9 <memcpy>:
c0004ba9:	55                   	push   %ebp
c0004baa:	89 e5                	mov    %esp,%ebp
c0004bac:	eb 16                	jmp    c0004bc4 <memcpy+0x1b>
c0004bae:	8b 45 08             	mov    0x8(%ebp),%eax
c0004bb1:	8b 55 0c             	mov    0xc(%ebp),%edx
c0004bb4:	8b 12                	mov    (%edx),%edx
c0004bb6:	89 10                	mov    %edx,(%eax)
c0004bb8:	83 45 08 04          	addl   $0x4,0x8(%ebp)
c0004bbc:	83 45 0c 04          	addl   $0x4,0xc(%ebp)
c0004bc0:	83 6d 10 04          	subl   $0x4,0x10(%ebp)
c0004bc4:	83 7d 10 03          	cmpl   $0x3,0x10(%ebp)
c0004bc8:	77 e4                	ja     c0004bae <memcpy+0x5>
c0004bca:	83 7d 10 01          	cmpl   $0x1,0x10(%ebp)
c0004bce:	76 18                	jbe    c0004be8 <memcpy+0x3f>
c0004bd0:	8b 45 08             	mov    0x8(%ebp),%eax
c0004bd3:	8b 55 0c             	mov    0xc(%ebp),%edx
c0004bd6:	0f b7 12             	movzwl (%edx),%edx
c0004bd9:	66 89 10             	mov    %dx,(%eax)
c0004bdc:	83 45 08 02          	addl   $0x2,0x8(%ebp)
c0004be0:	83 45 0c 02          	addl   $0x2,0xc(%ebp)
c0004be4:	83 6d 10 02          	subl   $0x2,0x10(%ebp)
c0004be8:	83 7d 10 00          	cmpl   $0x0,0x10(%ebp)
c0004bec:	74 0b                	je     c0004bf9 <memcpy+0x50>
c0004bee:	8b 45 08             	mov    0x8(%ebp),%eax
c0004bf1:	8b 55 0c             	mov    0xc(%ebp),%edx
c0004bf4:	0f b6 12             	movzbl (%edx),%edx
c0004bf7:	88 10                	mov    %dl,(%eax)
c0004bf9:	5d                   	pop    %ebp
c0004bfa:	c3                   	ret    

c0004bfb <memcmp>:
c0004bfb:	55                   	push   %ebp
c0004bfc:	89 e5                	mov    %esp,%ebp
c0004bfe:	56                   	push   %esi
c0004bff:	53                   	push   %ebx
c0004c00:	eb 21                	jmp    c0004c23 <memcmp+0x28>
c0004c02:	8b 45 08             	mov    0x8(%ebp),%eax
c0004c05:	8b 10                	mov    (%eax),%edx
c0004c07:	8b 45 0c             	mov    0xc(%ebp),%eax
c0004c0a:	8b 00                	mov    (%eax),%eax
c0004c0c:	39 c2                	cmp    %eax,%edx
c0004c0e:	74 07                	je     c0004c17 <memcmp+0x1c>
c0004c10:	b8 01 00 00 00       	mov    $0x1,%eax
c0004c15:	eb 76                	jmp    c0004c8d <memcmp+0x92>
c0004c17:	83 45 08 04          	addl   $0x4,0x8(%ebp)
c0004c1b:	83 45 0c 04          	addl   $0x4,0xc(%ebp)
c0004c1f:	83 6d 10 04          	subl   $0x4,0x10(%ebp)
c0004c23:	83 7d 10 03          	cmpl   $0x3,0x10(%ebp)
c0004c27:	77 d9                	ja     c0004c02 <memcmp+0x7>
c0004c29:	83 7d 10 01          	cmpl   $0x1,0x10(%ebp)
c0004c2d:	76 2f                	jbe    c0004c5e <memcmp+0x63>
c0004c2f:	8b 45 08             	mov    0x8(%ebp),%eax
c0004c32:	8b 08                	mov    (%eax),%ecx
c0004c34:	8b 58 04             	mov    0x4(%eax),%ebx
c0004c37:	8b 45 0c             	mov    0xc(%ebp),%eax
c0004c3a:	8b 50 04             	mov    0x4(%eax),%edx
c0004c3d:	8b 00                	mov    (%eax),%eax
c0004c3f:	89 de                	mov    %ebx,%esi
c0004c41:	31 d6                	xor    %edx,%esi
c0004c43:	31 c8                	xor    %ecx,%eax
c0004c45:	09 f0                	or     %esi,%eax
c0004c47:	85 c0                	test   %eax,%eax
c0004c49:	74 07                	je     c0004c52 <memcmp+0x57>
c0004c4b:	b8 01 00 00 00       	mov    $0x1,%eax
c0004c50:	eb 3b                	jmp    c0004c8d <memcmp+0x92>
c0004c52:	83 45 08 02          	addl   $0x2,0x8(%ebp)
c0004c56:	83 45 0c 02          	addl   $0x2,0xc(%ebp)
c0004c5a:	83 6d 10 02          	subl   $0x2,0x10(%ebp)
c0004c5e:	c7 45 10 01 00 00 00 	movl   $0x1,0x10(%ebp)
c0004c65:	8b 45 08             	mov    0x8(%ebp),%eax
c0004c68:	8b 08                	mov    (%eax),%ecx
c0004c6a:	8b 58 04             	mov    0x4(%eax),%ebx
c0004c6d:	8b 45 0c             	mov    0xc(%ebp),%eax
c0004c70:	8b 50 04             	mov    0x4(%eax),%edx
c0004c73:	8b 00                	mov    (%eax),%eax
c0004c75:	89 de                	mov    %ebx,%esi
c0004c77:	31 d6                	xor    %edx,%esi
c0004c79:	31 c8                	xor    %ecx,%eax
c0004c7b:	09 f0                	or     %esi,%eax
c0004c7d:	85 c0                	test   %eax,%eax
c0004c7f:	74 07                	je     c0004c88 <memcmp+0x8d>
c0004c81:	b8 01 00 00 00       	mov    $0x1,%eax
c0004c86:	eb 05                	jmp    c0004c8d <memcmp+0x92>
c0004c88:	b8 00 00 00 00       	mov    $0x0,%eax
c0004c8d:	5b                   	pop    %ebx
c0004c8e:	5e                   	pop    %esi
c0004c8f:	5d                   	pop    %ebp
c0004c90:	c3                   	ret    

c0004c91 <strlen>:
c0004c91:	55                   	push   %ebp
c0004c92:	89 e5                	mov    %esp,%ebp
c0004c94:	83 ec 10             	sub    $0x10,%esp
c0004c97:	c7 45 fc 00 00 00 00 	movl   $0x0,-0x4(%ebp)
c0004c9e:	eb 04                	jmp    c0004ca4 <strlen+0x13>
c0004ca0:	83 45 fc 01          	addl   $0x1,-0x4(%ebp)
c0004ca4:	8b 45 fc             	mov    -0x4(%ebp),%eax
c0004ca7:	03 45 08             	add    0x8(%ebp),%eax
c0004caa:	0f b6 00             	movzbl (%eax),%eax
c0004cad:	84 c0                	test   %al,%al
c0004caf:	75 ef                	jne    c0004ca0 <strlen+0xf>
c0004cb1:	8b 45 fc             	mov    -0x4(%ebp),%eax
c0004cb4:	c9                   	leave  
c0004cb5:	c3                   	ret    
c0004cb6:	90                   	nop
c0004cb7:	90                   	nop

c0004cb8 <cPageFault>:
c0004cb8:	55                   	push   %ebp
c0004cb9:	89 e5                	mov    %esp,%ebp
c0004cbb:	83 ec 28             	sub    $0x28,%esp
c0004cbe:	0f b6 05 18 80 00 c0 	movzbl 0xc0008018,%eax
c0004cc5:	84 c0                	test   %al,%al
c0004cc7:	74 0d                	je     c0004cd6 <cPageFault+0x1e>
c0004cc9:	b8 f0 79 00 c0       	mov    $0xc00079f0,%eax
c0004cce:	89 04 24             	mov    %eax,(%esp)
c0004cd1:	e8 32 0a 00 00       	call   c0005708 <printf>
c0004cd6:	0f b6 05 18 80 00 c0 	movzbl 0xc0008018,%eax
c0004cdd:	84 c0                	test   %al,%al
c0004cdf:	74 22                	je     c0004d03 <cPageFault+0x4b>
c0004ce1:	e8 a6 c3 ff ff       	call   c000108c <getCR2>
c0004ce6:	ba f4 79 00 c0       	mov    $0xc00079f4,%edx
c0004ceb:	89 44 24 04          	mov    %eax,0x4(%esp)
c0004cef:	89 14 24             	mov    %edx,(%esp)
c0004cf2:	e8 11 0a 00 00       	call   c0005708 <printf>
c0004cf7:	c7 04 24 03 7a 00 c0 	movl   $0xc0007a03,(%esp)
c0004cfe:	e8 b5 08 00 00       	call   c00055b8 <panic>
c0004d03:	8b 45 38             	mov    0x38(%ebp),%eax
c0004d06:	83 f8 08             	cmp    $0x8,%eax
c0004d09:	74 14                	je     c0004d1f <cPageFault+0x67>
c0004d0b:	8b 45 38             	mov    0x38(%ebp),%eax
c0004d0e:	83 f8 18             	cmp    $0x18,%eax
c0004d11:	74 0c                	je     c0004d1f <cPageFault+0x67>
c0004d13:	c7 04 24 12 7a 00 c0 	movl   $0xc0007a12,(%esp)
c0004d1a:	e8 99 08 00 00       	call   c00055b8 <panic>
c0004d1f:	e8 68 c3 ff ff       	call   c000108c <getCR2>
c0004d24:	89 45 e8             	mov    %eax,-0x18(%ebp)
c0004d27:	81 65 e8 00 f0 ff ff 	andl   $0xfffff000,-0x18(%ebp)
c0004d2e:	8b 45 30             	mov    0x30(%ebp),%eax
c0004d31:	83 e0 07             	and    $0x7,%eax
c0004d34:	88 45 ef             	mov    %al,-0x11(%ebp)
c0004d37:	0f b6 05 18 80 00 c0 	movzbl 0xc0008018,%eax
c0004d3e:	84 c0                	test   %al,%al
c0004d40:	74 14                	je     c0004d56 <cPageFault+0x9e>
c0004d42:	b8 24 7a 00 c0       	mov    $0xc0007a24,%eax
c0004d47:	8b 55 e8             	mov    -0x18(%ebp),%edx
c0004d4a:	89 54 24 04          	mov    %edx,0x4(%esp)
c0004d4e:	89 04 24             	mov    %eax,(%esp)
c0004d51:	e8 b2 09 00 00       	call   c0005708 <printf>
c0004d56:	0f b6 45 ef          	movzbl -0x11(%ebp),%eax
c0004d5a:	83 e0 08             	and    $0x8,%eax
c0004d5d:	85 c0                	test   %eax,%eax
c0004d5f:	74 0c                	je     c0004d6d <cPageFault+0xb5>
c0004d61:	c7 04 24 45 7a 00 c0 	movl   $0xc0007a45,(%esp)
c0004d68:	e8 4b 08 00 00       	call   c00055b8 <panic>
c0004d6d:	0f b6 45 ef          	movzbl -0x11(%ebp),%eax
c0004d71:	83 e0 04             	and    $0x4,%eax
c0004d74:	85 c0                	test   %eax,%eax
c0004d76:	74 11                	je     c0004d89 <cPageFault+0xd1>
c0004d78:	c7 04 24 5d 7a 00 c0 	movl   $0xc0007a5d,(%esp)
c0004d7f:	e8 34 08 00 00       	call   c00055b8 <panic>
c0004d84:	e9 10 01 00 00       	jmp    c0004e99 <cPageFault+0x1e1>
c0004d89:	0f b6 45 ef          	movzbl -0x11(%ebp),%eax
c0004d8d:	83 e0 01             	and    $0x1,%eax
c0004d90:	85 c0                	test   %eax,%eax
c0004d92:	0f 85 97 00 00 00    	jne    c0004e2f <cPageFault+0x177>
c0004d98:	0f b6 45 ef          	movzbl -0x11(%ebp),%eax
c0004d9c:	83 e0 02             	and    $0x2,%eax
c0004d9f:	85 c0                	test   %eax,%eax
c0004da1:	0f 84 88 00 00 00    	je     c0004e2f <cPageFault+0x177>
c0004da7:	0f b6 05 70 73 00 c0 	movzbl 0xc0007370,%eax
c0004dae:	0f b6 c0             	movzbl %al,%eax
c0004db1:	89 04 24             	mov    %eax,(%esp)
c0004db4:	e8 ce fb ff ff       	call   c0004987 <allocPage>
c0004db9:	89 45 f0             	mov    %eax,-0x10(%ebp)
c0004dbc:	8b 45 f0             	mov    -0x10(%ebp),%eax
c0004dbf:	0f b6 40 04          	movzbl 0x4(%eax),%eax
c0004dc3:	84 c0                	test   %al,%al
c0004dc5:	75 0c                	jne    c0004dd3 <cPageFault+0x11b>
c0004dc7:	c7 04 24 78 7a 00 c0 	movl   $0xc0007a78,(%esp)
c0004dce:	e8 e5 07 00 00       	call   c00055b8 <panic>
c0004dd3:	8b 45 f0             	mov    -0x10(%ebp),%eax
c0004dd6:	8b 00                	mov    (%eax),%eax
c0004dd8:	89 c2                	mov    %eax,%edx
c0004dda:	8b 45 e8             	mov    -0x18(%ebp),%eax
c0004ddd:	c7 44 24 0c 01 00 00 	movl   $0x1,0xc(%esp)
c0004de4:	00 
c0004de5:	c7 44 24 08 00 00 00 	movl   $0x0,0x8(%esp)
c0004dec:	00 
c0004ded:	89 54 24 04          	mov    %edx,0x4(%esp)
c0004df1:	89 04 24             	mov    %eax,(%esp)
c0004df4:	e8 a2 00 00 00       	call   c0004e9b <setPage>
c0004df9:	88 45 f7             	mov    %al,-0x9(%ebp)
c0004dfc:	80 7d f7 00          	cmpb   $0x0,-0x9(%ebp)
c0004e00:	0f 85 92 00 00 00    	jne    c0004e98 <cPageFault+0x1e0>
c0004e06:	0f b6 05 70 73 00 c0 	movzbl 0xc0007370,%eax
c0004e0d:	0f b6 d0             	movzbl %al,%edx
c0004e10:	8b 45 f0             	mov    -0x10(%ebp),%eax
c0004e13:	8b 00                	mov    (%eax),%eax
c0004e15:	89 54 24 04          	mov    %edx,0x4(%esp)
c0004e19:	89 04 24             	mov    %eax,(%esp)
c0004e1c:	e8 4f fc ff ff       	call   c0004a70 <freePage>
c0004e21:	c7 04 24 90 7a 00 c0 	movl   $0xc0007a90,(%esp)
c0004e28:	e8 8b 07 00 00       	call   c00055b8 <panic>
c0004e2d:	eb 6a                	jmp    c0004e99 <cPageFault+0x1e1>
c0004e2f:	0f b6 45 ef          	movzbl -0x11(%ebp),%eax
c0004e33:	83 e0 01             	and    $0x1,%eax
c0004e36:	85 c0                	test   %eax,%eax
c0004e38:	75 45                	jne    c0004e7f <cPageFault+0x1c7>
c0004e3a:	0f b6 45 ef          	movzbl -0x11(%ebp),%eax
c0004e3e:	83 e0 02             	and    $0x2,%eax
c0004e41:	85 c0                	test   %eax,%eax
c0004e43:	75 3a                	jne    c0004e7f <cPageFault+0x1c7>
c0004e45:	0f b6 45 ef          	movzbl -0x11(%ebp),%eax
c0004e49:	83 e0 10             	and    $0x10,%eax
c0004e4c:	85 c0                	test   %eax,%eax
c0004e4e:	74 0d                	je     c0004e5d <cPageFault+0x1a5>
c0004e50:	b8 b8 7a 00 c0       	mov    $0xc0007ab8,%eax
c0004e55:	89 04 24             	mov    %eax,(%esp)
c0004e58:	e8 ab 08 00 00       	call   c0005708 <printf>
c0004e5d:	b8 e9 7a 00 c0       	mov    $0xc0007ae9,%eax
c0004e62:	8b 55 e8             	mov    -0x18(%ebp),%edx
c0004e65:	89 54 24 04          	mov    %edx,0x4(%esp)
c0004e69:	89 04 24             	mov    %eax,(%esp)
c0004e6c:	e8 97 08 00 00       	call   c0005708 <printf>
c0004e71:	c7 04 24 06 7b 00 c0 	movl   $0xc0007b06,(%esp)
c0004e78:	e8 3b 07 00 00       	call   c00055b8 <panic>
c0004e7d:	eb 1a                	jmp    c0004e99 <cPageFault+0x1e1>
c0004e7f:	0f b6 45 ef          	movzbl -0x11(%ebp),%eax
c0004e83:	83 e0 01             	and    $0x1,%eax
c0004e86:	84 c0                	test   %al,%al
c0004e88:	74 0f                	je     c0004e99 <cPageFault+0x1e1>
c0004e8a:	c7 04 24 20 7b 00 c0 	movl   $0xc0007b20,(%esp)
c0004e91:	e8 22 07 00 00       	call   c00055b8 <panic>
c0004e96:	eb 01                	jmp    c0004e99 <cPageFault+0x1e1>
c0004e98:	90                   	nop
c0004e99:	c9                   	leave  
c0004e9a:	c3                   	ret    

c0004e9b <setPage>:
c0004e9b:	55                   	push   %ebp
c0004e9c:	89 e5                	mov    %esp,%ebp
c0004e9e:	53                   	push   %ebx
c0004e9f:	83 ec 34             	sub    $0x34,%esp
c0004ea2:	8b 55 10             	mov    0x10(%ebp),%edx
c0004ea5:	8b 45 14             	mov    0x14(%ebp),%eax
c0004ea8:	88 55 d4             	mov    %dl,-0x2c(%ebp)
c0004eab:	88 45 d0             	mov    %al,-0x30(%ebp)
c0004eae:	8b 45 08             	mov    0x8(%ebp),%eax
c0004eb1:	25 ff 0f 00 00       	and    $0xfff,%eax
c0004eb6:	85 c0                	test   %eax,%eax
c0004eb8:	75 0c                	jne    c0004ec6 <setPage+0x2b>
c0004eba:	8b 45 0c             	mov    0xc(%ebp),%eax
c0004ebd:	25 ff 0f 00 00       	and    $0xfff,%eax
c0004ec2:	85 c0                	test   %eax,%eax
c0004ec4:	74 0a                	je     c0004ed0 <setPage+0x35>
c0004ec6:	b8 00 00 00 00       	mov    $0x0,%eax
c0004ecb:	e9 98 01 00 00       	jmp    c0005068 <setPage+0x1cd>
c0004ed0:	8b 45 08             	mov    0x8(%ebp),%eax
c0004ed3:	c1 e8 16             	shr    $0x16,%eax
c0004ed6:	89 45 e0             	mov    %eax,-0x20(%ebp)
c0004ed9:	8b 45 08             	mov    0x8(%ebp),%eax
c0004edc:	89 c2                	mov    %eax,%edx
c0004ede:	c1 ea 0c             	shr    $0xc,%edx
c0004ee1:	8b 45 e0             	mov    -0x20(%ebp),%eax
c0004ee4:	c1 e0 0a             	shl    $0xa,%eax
c0004ee7:	89 d1                	mov    %edx,%ecx
c0004ee9:	29 c1                	sub    %eax,%ecx
c0004eeb:	89 c8                	mov    %ecx,%eax
c0004eed:	89 45 e4             	mov    %eax,-0x1c(%ebp)
c0004ef0:	e8 9b c1 ff ff       	call   c0001090 <getCR3>
c0004ef5:	89 45 e8             	mov    %eax,-0x18(%ebp)
c0004ef8:	8b 45 e8             	mov    -0x18(%ebp),%eax
c0004efb:	25 00 f0 ff ff       	and    $0xfffff000,%eax
c0004f00:	89 45 ec             	mov    %eax,-0x14(%ebp)
c0004f03:	8b 45 e0             	mov    -0x20(%ebp),%eax
c0004f06:	c1 e0 02             	shl    $0x2,%eax
c0004f09:	03 45 ec             	add    -0x14(%ebp),%eax
c0004f0c:	0f b6 50 01          	movzbl 0x1(%eax),%edx
c0004f10:	c0 ea 04             	shr    $0x4,%dl
c0004f13:	0f b6 d2             	movzbl %dl,%edx
c0004f16:	0f b6 48 02          	movzbl 0x2(%eax),%ecx
c0004f1a:	c1 e1 04             	shl    $0x4,%ecx
c0004f1d:	09 ca                	or     %ecx,%edx
c0004f1f:	0f b6 40 03          	movzbl 0x3(%eax),%eax
c0004f23:	c1 e0 0c             	shl    $0xc,%eax
c0004f26:	09 d0                	or     %edx,%eax
c0004f28:	c1 e0 0c             	shl    $0xc,%eax
c0004f2b:	89 45 f0             	mov    %eax,-0x10(%ebp)
c0004f2e:	83 7d f0 00          	cmpl   $0x0,-0x10(%ebp)
c0004f32:	75 0a                	jne    c0004f3e <setPage+0xa3>
c0004f34:	b8 00 00 00 00       	mov    $0x0,%eax
c0004f39:	e9 2a 01 00 00       	jmp    c0005068 <setPage+0x1cd>
c0004f3e:	8b 45 f0             	mov    -0x10(%ebp),%eax
c0004f41:	89 45 f4             	mov    %eax,-0xc(%ebp)
c0004f44:	8b 45 e4             	mov    -0x1c(%ebp),%eax
c0004f47:	c1 e0 02             	shl    $0x2,%eax
c0004f4a:	03 45 f4             	add    -0xc(%ebp),%eax
c0004f4d:	8b 55 0c             	mov    0xc(%ebp),%edx
c0004f50:	c1 ea 0c             	shr    $0xc,%edx
c0004f53:	81 e2 ff ff 0f 00    	and    $0xfffff,%edx
c0004f59:	89 d1                	mov    %edx,%ecx
c0004f5b:	83 e1 0f             	and    $0xf,%ecx
c0004f5e:	89 cb                	mov    %ecx,%ebx
c0004f60:	c1 e3 04             	shl    $0x4,%ebx
c0004f63:	0f b6 48 01          	movzbl 0x1(%eax),%ecx
c0004f67:	83 e1 0f             	and    $0xf,%ecx
c0004f6a:	09 d9                	or     %ebx,%ecx
c0004f6c:	88 48 01             	mov    %cl,0x1(%eax)
c0004f6f:	89 d1                	mov    %edx,%ecx
c0004f71:	c1 e9 04             	shr    $0x4,%ecx
c0004f74:	0f b6 d9             	movzbl %cl,%ebx
c0004f77:	0f b6 48 02          	movzbl 0x2(%eax),%ecx
c0004f7b:	83 e1 00             	and    $0x0,%ecx
c0004f7e:	09 d9                	or     %ebx,%ecx
c0004f80:	88 48 02             	mov    %cl,0x2(%eax)
c0004f83:	c1 ea 0c             	shr    $0xc,%edx
c0004f86:	0f b6 ca             	movzbl %dl,%ecx
c0004f89:	0f b6 50 03          	movzbl 0x3(%eax),%edx
c0004f8d:	83 e2 00             	and    $0x0,%edx
c0004f90:	09 ca                	or     %ecx,%edx
c0004f92:	88 50 03             	mov    %dl,0x3(%eax)
c0004f95:	8b 45 e4             	mov    -0x1c(%ebp),%eax
c0004f98:	c1 e0 02             	shl    $0x2,%eax
c0004f9b:	03 45 f4             	add    -0xc(%ebp),%eax
c0004f9e:	0f b6 10             	movzbl (%eax),%edx
c0004fa1:	83 e2 ef             	and    $0xffffffef,%edx
c0004fa4:	88 10                	mov    %dl,(%eax)
c0004fa6:	8b 45 e4             	mov    -0x1c(%ebp),%eax
c0004fa9:	c1 e0 02             	shl    $0x2,%eax
c0004fac:	03 45 f4             	add    -0xc(%ebp),%eax
c0004faf:	0f b6 10             	movzbl (%eax),%edx
c0004fb2:	83 e2 f7             	and    $0xfffffff7,%edx
c0004fb5:	88 10                	mov    %dl,(%eax)
c0004fb7:	8b 45 e4             	mov    -0x1c(%ebp),%eax
c0004fba:	c1 e0 02             	shl    $0x2,%eax
c0004fbd:	03 45 f4             	add    -0xc(%ebp),%eax
c0004fc0:	0f b6 10             	movzbl (%eax),%edx
c0004fc3:	83 ca 01             	or     $0x1,%edx
c0004fc6:	88 10                	mov    %dl,(%eax)
c0004fc8:	8b 45 e4             	mov    -0x1c(%ebp),%eax
c0004fcb:	c1 e0 02             	shl    $0x2,%eax
c0004fce:	03 45 f4             	add    -0xc(%ebp),%eax
c0004fd1:	0f b6 10             	movzbl (%eax),%edx
c0004fd4:	83 e2 df             	and    $0xffffffdf,%edx
c0004fd7:	88 10                	mov    %dl,(%eax)
c0004fd9:	8b 45 e4             	mov    -0x1c(%ebp),%eax
c0004fdc:	c1 e0 02             	shl    $0x2,%eax
c0004fdf:	03 45 f4             	add    -0xc(%ebp),%eax
c0004fe2:	0f b6 10             	movzbl (%eax),%edx
c0004fe5:	83 e2 bf             	and    $0xffffffbf,%edx
c0004fe8:	88 10                	mov    %dl,(%eax)
c0004fea:	8b 45 e4             	mov    -0x1c(%ebp),%eax
c0004fed:	c1 e0 02             	shl    $0x2,%eax
c0004ff0:	03 45 f4             	add    -0xc(%ebp),%eax
c0004ff3:	80 7d d4 00          	cmpb   $0x0,-0x2c(%ebp)
c0004ff7:	0f 94 c2             	sete   %dl
c0004ffa:	83 e2 01             	and    $0x1,%edx
c0004ffd:	8d 0c 12             	lea    (%edx,%edx,1),%ecx
c0005000:	0f b6 10             	movzbl (%eax),%edx
c0005003:	83 e2 fd             	and    $0xfffffffd,%edx
c0005006:	09 ca                	or     %ecx,%edx
c0005008:	88 10                	mov    %dl,(%eax)
c000500a:	8b 45 e4             	mov    -0x1c(%ebp),%eax
c000500d:	c1 e0 02             	shl    $0x2,%eax
c0005010:	03 45 f4             	add    -0xc(%ebp),%eax
c0005013:	80 7d d0 00          	cmpb   $0x0,-0x30(%ebp)
c0005017:	0f 94 c2             	sete   %dl
c000501a:	83 e2 01             	and    $0x1,%edx
c000501d:	8d 0c 95 00 00 00 00 	lea    0x0(,%edx,4),%ecx
c0005024:	0f b6 10             	movzbl (%eax),%edx
c0005027:	83 e2 fb             	and    $0xfffffffb,%edx
c000502a:	09 ca                	or     %ecx,%edx
c000502c:	88 10                	mov    %dl,(%eax)
c000502e:	8b 45 e4             	mov    -0x1c(%ebp),%eax
c0005031:	c1 e0 02             	shl    $0x2,%eax
c0005034:	03 45 f4             	add    -0xc(%ebp),%eax
c0005037:	0f b6 50 01          	movzbl 0x1(%eax),%edx
c000503b:	83 e2 fe             	and    $0xfffffffe,%edx
c000503e:	88 50 01             	mov    %dl,0x1(%eax)
c0005041:	8b 45 e4             	mov    -0x1c(%ebp),%eax
c0005044:	c1 e0 02             	shl    $0x2,%eax
c0005047:	03 45 f4             	add    -0xc(%ebp),%eax
c000504a:	0f b6 10             	movzbl (%eax),%edx
c000504d:	83 e2 7f             	and    $0x7f,%edx
c0005050:	88 10                	mov    %dl,(%eax)
c0005052:	8b 45 e0             	mov    -0x20(%ebp),%eax
c0005055:	c1 e0 02             	shl    $0x2,%eax
c0005058:	03 45 ec             	add    -0x14(%ebp),%eax
c000505b:	0f b6 10             	movzbl (%eax),%edx
c000505e:	83 ca 01             	or     $0x1,%edx
c0005061:	88 10                	mov    %dl,(%eax)
c0005063:	b8 01 00 00 00       	mov    $0x1,%eax
c0005068:	83 c4 34             	add    $0x34,%esp
c000506b:	5b                   	pop    %ebx
c000506c:	5d                   	pop    %ebp
c000506d:	c3                   	ret    

c000506e <getPhysAddr>:
c000506e:	55                   	push   %ebp
c000506f:	89 e5                	mov    %esp,%ebp
c0005071:	83 ec 38             	sub    $0x38,%esp
c0005074:	c7 45 d4 00 00 00 00 	movl   $0x0,-0x2c(%ebp)
c000507b:	8b 45 08             	mov    0x8(%ebp),%eax
c000507e:	c1 e8 16             	shr    $0x16,%eax
c0005081:	89 45 d8             	mov    %eax,-0x28(%ebp)
c0005084:	8b 45 08             	mov    0x8(%ebp),%eax
c0005087:	89 c2                	mov    %eax,%edx
c0005089:	c1 ea 0c             	shr    $0xc,%edx
c000508c:	8b 45 d8             	mov    -0x28(%ebp),%eax
c000508f:	c1 e0 0a             	shl    $0xa,%eax
c0005092:	89 d1                	mov    %edx,%ecx
c0005094:	29 c1                	sub    %eax,%ecx
c0005096:	89 c8                	mov    %ecx,%eax
c0005098:	89 45 dc             	mov    %eax,-0x24(%ebp)
c000509b:	8b 45 08             	mov    0x8(%ebp),%eax
c000509e:	25 ff 0f 00 00       	and    $0xfff,%eax
c00050a3:	89 45 e0             	mov    %eax,-0x20(%ebp)
c00050a6:	e8 e5 bf ff ff       	call   c0001090 <getCR3>
c00050ab:	89 45 e4             	mov    %eax,-0x1c(%ebp)
c00050ae:	8b 45 e4             	mov    -0x1c(%ebp),%eax
c00050b1:	25 00 f0 ff ff       	and    $0xfffff000,%eax
c00050b6:	89 45 e8             	mov    %eax,-0x18(%ebp)
c00050b9:	8b 45 d8             	mov    -0x28(%ebp),%eax
c00050bc:	c1 e0 02             	shl    $0x2,%eax
c00050bf:	03 45 e8             	add    -0x18(%ebp),%eax
c00050c2:	0f b6 50 01          	movzbl 0x1(%eax),%edx
c00050c6:	c0 ea 04             	shr    $0x4,%dl
c00050c9:	0f b6 d2             	movzbl %dl,%edx
c00050cc:	0f b6 48 02          	movzbl 0x2(%eax),%ecx
c00050d0:	c1 e1 04             	shl    $0x4,%ecx
c00050d3:	09 ca                	or     %ecx,%edx
c00050d5:	0f b6 40 03          	movzbl 0x3(%eax),%eax
c00050d9:	c1 e0 0c             	shl    $0xc,%eax
c00050dc:	09 d0                	or     %edx,%eax
c00050de:	c1 e0 0c             	shl    $0xc,%eax
c00050e1:	89 45 ec             	mov    %eax,-0x14(%ebp)
c00050e4:	8b 45 ec             	mov    -0x14(%ebp),%eax
c00050e7:	89 45 f0             	mov    %eax,-0x10(%ebp)
c00050ea:	8b 45 dc             	mov    -0x24(%ebp),%eax
c00050ed:	c1 e0 02             	shl    $0x2,%eax
c00050f0:	03 45 f0             	add    -0x10(%ebp),%eax
c00050f3:	0f b6 50 01          	movzbl 0x1(%eax),%edx
c00050f7:	c0 ea 04             	shr    $0x4,%dl
c00050fa:	0f b6 d2             	movzbl %dl,%edx
c00050fd:	0f b6 48 02          	movzbl 0x2(%eax),%ecx
c0005101:	c1 e1 04             	shl    $0x4,%ecx
c0005104:	09 ca                	or     %ecx,%edx
c0005106:	0f b6 40 03          	movzbl 0x3(%eax),%eax
c000510a:	c1 e0 0c             	shl    $0xc,%eax
c000510d:	09 d0                	or     %edx,%eax
c000510f:	c1 e0 0c             	shl    $0xc,%eax
c0005112:	89 45 f4             	mov    %eax,-0xc(%ebp)
c0005115:	8b 45 e0             	mov    -0x20(%ebp),%eax
c0005118:	01 45 f4             	add    %eax,-0xc(%ebp)
c000511b:	8b 45 f4             	mov    -0xc(%ebp),%eax
c000511e:	89 45 d4             	mov    %eax,-0x2c(%ebp)
c0005121:	8b 45 d4             	mov    -0x2c(%ebp),%eax
c0005124:	c9                   	leave  
c0005125:	c3                   	ret    

c0005126 <addPageTable>:
c0005126:	55                   	push   %ebp
c0005127:	89 e5                	mov    %esp,%ebp
c0005129:	53                   	push   %ebx
c000512a:	8b 45 10             	mov    0x10(%ebp),%eax
c000512d:	c1 e0 02             	shl    $0x2,%eax
c0005130:	03 45 08             	add    0x8(%ebp),%eax
c0005133:	8d 55 0c             	lea    0xc(%ebp),%edx
c0005136:	c1 ea 0c             	shr    $0xc,%edx
c0005139:	81 e2 ff ff 0f 00    	and    $0xfffff,%edx
c000513f:	89 d1                	mov    %edx,%ecx
c0005141:	83 e1 0f             	and    $0xf,%ecx
c0005144:	89 cb                	mov    %ecx,%ebx
c0005146:	c1 e3 04             	shl    $0x4,%ebx
c0005149:	0f b6 48 01          	movzbl 0x1(%eax),%ecx
c000514d:	83 e1 0f             	and    $0xf,%ecx
c0005150:	09 d9                	or     %ebx,%ecx
c0005152:	88 48 01             	mov    %cl,0x1(%eax)
c0005155:	89 d1                	mov    %edx,%ecx
c0005157:	c1 e9 04             	shr    $0x4,%ecx
c000515a:	0f b6 d9             	movzbl %cl,%ebx
c000515d:	0f b6 48 02          	movzbl 0x2(%eax),%ecx
c0005161:	83 e1 00             	and    $0x0,%ecx
c0005164:	09 d9                	or     %ebx,%ecx
c0005166:	88 48 02             	mov    %cl,0x2(%eax)
c0005169:	c1 ea 0c             	shr    $0xc,%edx
c000516c:	0f b6 ca             	movzbl %dl,%ecx
c000516f:	0f b6 50 03          	movzbl 0x3(%eax),%edx
c0005173:	83 e2 00             	and    $0x0,%edx
c0005176:	09 ca                	or     %ecx,%edx
c0005178:	88 50 03             	mov    %dl,0x3(%eax)
c000517b:	5b                   	pop    %ebx
c000517c:	5d                   	pop    %ebp
c000517d:	c3                   	ret    

c000517e <setupPageDir>:
c000517e:	55                   	push   %ebp
c000517f:	89 e5                	mov    %esp,%ebp
c0005181:	53                   	push   %ebx
c0005182:	83 ec 34             	sub    $0x34,%esp
c0005185:	c7 44 24 04 01 00 00 	movl   $0x1,0x4(%esp)
c000518c:	00 
c000518d:	c7 04 24 00 10 00 00 	movl   $0x1000,(%esp)
c0005194:	e8 47 f0 ff ff       	call   c00041e0 <alloc>
c0005199:	89 45 e4             	mov    %eax,-0x1c(%ebp)
c000519c:	83 7d e4 00          	cmpl   $0x0,-0x1c(%ebp)
c00051a0:	75 0c                	jne    c00051ae <setupPageDir+0x30>
c00051a2:	c7 04 24 3b 7b 00 c0 	movl   $0xc0007b3b,(%esp)
c00051a9:	e8 0a 04 00 00       	call   c00055b8 <panic>
c00051ae:	c7 44 24 08 00 10 00 	movl   $0x1000,0x8(%esp)
c00051b5:	00 
c00051b6:	c7 44 24 04 00 00 00 	movl   $0x0,0x4(%esp)
c00051bd:	00 
c00051be:	8b 45 e4             	mov    -0x1c(%ebp),%eax
c00051c1:	89 04 24             	mov    %eax,(%esp)
c00051c4:	e8 55 f9 ff ff       	call   c0004b1e <memset>
c00051c9:	c7 45 e8 00 00 00 00 	movl   $0x0,-0x18(%ebp)
c00051d0:	e9 a0 03 00 00       	jmp    c0005575 <setupPageDir+0x3f7>
c00051d5:	c7 45 f0 00 00 00 00 	movl   $0x0,-0x10(%ebp)
c00051dc:	c7 44 24 04 01 00 00 	movl   $0x1,0x4(%esp)
c00051e3:	00 
c00051e4:	c7 04 24 00 10 00 00 	movl   $0x1000,(%esp)
c00051eb:	e8 f0 ef ff ff       	call   c00041e0 <alloc>
c00051f0:	89 45 f4             	mov    %eax,-0xc(%ebp)
c00051f3:	83 7d f4 00          	cmpl   $0x0,-0xc(%ebp)
c00051f7:	75 20                	jne    c0005219 <setupPageDir+0x9b>
c00051f9:	b8 59 7b 00 c0       	mov    $0xc0007b59,%eax
c00051fe:	8b 55 e8             	mov    -0x18(%ebp),%edx
c0005201:	89 54 24 04          	mov    %edx,0x4(%esp)
c0005205:	89 04 24             	mov    %eax,(%esp)
c0005208:	e8 fb 04 00 00       	call   c0005708 <printf>
c000520d:	c7 04 24 68 7b 00 c0 	movl   $0xc0007b68,(%esp)
c0005214:	e8 9f 03 00 00       	call   c00055b8 <panic>
c0005219:	c7 44 24 08 00 10 00 	movl   $0x1000,0x8(%esp)
c0005220:	00 
c0005221:	c7 44 24 04 00 00 00 	movl   $0x0,0x4(%esp)
c0005228:	00 
c0005229:	8b 45 f4             	mov    -0xc(%ebp),%eax
c000522c:	89 04 24             	mov    %eax,(%esp)
c000522f:	e8 ea f8 ff ff       	call   c0004b1e <memset>
c0005234:	c7 45 ec 00 00 00 00 	movl   $0x0,-0x14(%ebp)
c000523b:	e9 2a 02 00 00       	jmp    c000546a <setupPageDir+0x2ec>
c0005240:	8b 45 e8             	mov    -0x18(%ebp),%eax
c0005243:	c1 e0 0a             	shl    $0xa,%eax
c0005246:	03 45 ec             	add    -0x14(%ebp),%eax
c0005249:	0f b7 84 00 60 d0 01 	movzwl -0x3ffe2fa0(%eax,%eax,1),%eax
c0005250:	c0 
c0005251:	0f b7 c0             	movzwl %ax,%eax
c0005254:	85 c0                	test   %eax,%eax
c0005256:	0f 84 06 01 00 00    	je     c0005362 <setupPageDir+0x1e4>
c000525c:	85 c0                	test   %eax,%eax
c000525e:	0f 88 ff 00 00 00    	js     c0005363 <setupPageDir+0x1e5>
c0005264:	83 f8 03             	cmp    $0x3,%eax
c0005267:	0f 8f f6 00 00 00    	jg     c0005363 <setupPageDir+0x1e5>
c000526d:	8b 45 ec             	mov    -0x14(%ebp),%eax
c0005270:	c1 e0 02             	shl    $0x2,%eax
c0005273:	03 45 f4             	add    -0xc(%ebp),%eax
c0005276:	8b 55 e8             	mov    -0x18(%ebp),%edx
c0005279:	c1 e2 0a             	shl    $0xa,%edx
c000527c:	03 55 ec             	add    -0x14(%ebp),%edx
c000527f:	81 e2 ff ff 0f 00    	and    $0xfffff,%edx
c0005285:	89 d1                	mov    %edx,%ecx
c0005287:	83 e1 0f             	and    $0xf,%ecx
c000528a:	89 cb                	mov    %ecx,%ebx
c000528c:	c1 e3 04             	shl    $0x4,%ebx
c000528f:	0f b6 48 01          	movzbl 0x1(%eax),%ecx
c0005293:	83 e1 0f             	and    $0xf,%ecx
c0005296:	09 d9                	or     %ebx,%ecx
c0005298:	88 48 01             	mov    %cl,0x1(%eax)
c000529b:	89 d1                	mov    %edx,%ecx
c000529d:	c1 e9 04             	shr    $0x4,%ecx
c00052a0:	0f b6 d9             	movzbl %cl,%ebx
c00052a3:	0f b6 48 02          	movzbl 0x2(%eax),%ecx
c00052a7:	83 e1 00             	and    $0x0,%ecx
c00052aa:	09 d9                	or     %ebx,%ecx
c00052ac:	88 48 02             	mov    %cl,0x2(%eax)
c00052af:	c1 ea 0c             	shr    $0xc,%edx
c00052b2:	0f b6 ca             	movzbl %dl,%ecx
c00052b5:	0f b6 50 03          	movzbl 0x3(%eax),%edx
c00052b9:	83 e2 00             	and    $0x0,%edx
c00052bc:	09 ca                	or     %ecx,%edx
c00052be:	88 50 03             	mov    %dl,0x3(%eax)
c00052c1:	8b 45 ec             	mov    -0x14(%ebp),%eax
c00052c4:	c1 e0 02             	shl    $0x2,%eax
c00052c7:	03 45 f4             	add    -0xc(%ebp),%eax
c00052ca:	0f b6 10             	movzbl (%eax),%edx
c00052cd:	83 e2 ef             	and    $0xffffffef,%edx
c00052d0:	88 10                	mov    %dl,(%eax)
c00052d2:	8b 45 ec             	mov    -0x14(%ebp),%eax
c00052d5:	c1 e0 02             	shl    $0x2,%eax
c00052d8:	03 45 f4             	add    -0xc(%ebp),%eax
c00052db:	0f b6 10             	movzbl (%eax),%edx
c00052de:	83 e2 f7             	and    $0xfffffff7,%edx
c00052e1:	88 10                	mov    %dl,(%eax)
c00052e3:	8b 45 ec             	mov    -0x14(%ebp),%eax
c00052e6:	c1 e0 02             	shl    $0x2,%eax
c00052e9:	03 45 f4             	add    -0xc(%ebp),%eax
c00052ec:	0f b6 10             	movzbl (%eax),%edx
c00052ef:	83 ca 01             	or     $0x1,%edx
c00052f2:	88 10                	mov    %dl,(%eax)
c00052f4:	8b 45 ec             	mov    -0x14(%ebp),%eax
c00052f7:	c1 e0 02             	shl    $0x2,%eax
c00052fa:	03 45 f4             	add    -0xc(%ebp),%eax
c00052fd:	0f b6 10             	movzbl (%eax),%edx
c0005300:	83 e2 df             	and    $0xffffffdf,%edx
c0005303:	88 10                	mov    %dl,(%eax)
c0005305:	8b 45 ec             	mov    -0x14(%ebp),%eax
c0005308:	c1 e0 02             	shl    $0x2,%eax
c000530b:	03 45 f4             	add    -0xc(%ebp),%eax
c000530e:	0f b6 10             	movzbl (%eax),%edx
c0005311:	83 e2 bf             	and    $0xffffffbf,%edx
c0005314:	88 10                	mov    %dl,(%eax)
c0005316:	8b 45 ec             	mov    -0x14(%ebp),%eax
c0005319:	c1 e0 02             	shl    $0x2,%eax
c000531c:	03 45 f4             	add    -0xc(%ebp),%eax
c000531f:	0f b6 10             	movzbl (%eax),%edx
c0005322:	83 ca 02             	or     $0x2,%edx
c0005325:	88 10                	mov    %dl,(%eax)
c0005327:	8b 45 ec             	mov    -0x14(%ebp),%eax
c000532a:	c1 e0 02             	shl    $0x2,%eax
c000532d:	03 45 f4             	add    -0xc(%ebp),%eax
c0005330:	0f b6 10             	movzbl (%eax),%edx
c0005333:	83 e2 fb             	and    $0xfffffffb,%edx
c0005336:	88 10                	mov    %dl,(%eax)
c0005338:	8b 45 ec             	mov    -0x14(%ebp),%eax
c000533b:	c1 e0 02             	shl    $0x2,%eax
c000533e:	03 45 f4             	add    -0xc(%ebp),%eax
c0005341:	0f b6 50 01          	movzbl 0x1(%eax),%edx
c0005345:	83 e2 fe             	and    $0xfffffffe,%edx
c0005348:	88 50 01             	mov    %dl,0x1(%eax)
c000534b:	8b 45 ec             	mov    -0x14(%ebp),%eax
c000534e:	c1 e0 02             	shl    $0x2,%eax
c0005351:	03 45 f4             	add    -0xc(%ebp),%eax
c0005354:	0f b6 10             	movzbl (%eax),%edx
c0005357:	83 e2 7f             	and    $0x7f,%edx
c000535a:	88 10                	mov    %dl,(%eax)
c000535c:	83 45 f0 01          	addl   $0x1,-0x10(%ebp)
c0005360:	eb 01                	jmp    c0005363 <setupPageDir+0x1e5>
c0005362:	90                   	nop
c0005363:	8b 45 e8             	mov    -0x18(%ebp),%eax
c0005366:	c1 e0 0a             	shl    $0xa,%eax
c0005369:	03 45 ec             	add    -0x14(%ebp),%eax
c000536c:	3d 00 80 0b 00       	cmp    $0xb8000,%eax
c0005371:	0f 85 ef 00 00 00    	jne    c0005466 <setupPageDir+0x2e8>
c0005377:	8b 45 ec             	mov    -0x14(%ebp),%eax
c000537a:	c1 e0 02             	shl    $0x2,%eax
c000537d:	03 45 f4             	add    -0xc(%ebp),%eax
c0005380:	8b 55 e8             	mov    -0x18(%ebp),%edx
c0005383:	c1 e2 0a             	shl    $0xa,%edx
c0005386:	03 55 ec             	add    -0x14(%ebp),%edx
c0005389:	81 e2 ff ff 0f 00    	and    $0xfffff,%edx
c000538f:	89 d1                	mov    %edx,%ecx
c0005391:	83 e1 0f             	and    $0xf,%ecx
c0005394:	89 cb                	mov    %ecx,%ebx
c0005396:	c1 e3 04             	shl    $0x4,%ebx
c0005399:	0f b6 48 01          	movzbl 0x1(%eax),%ecx
c000539d:	83 e1 0f             	and    $0xf,%ecx
c00053a0:	09 d9                	or     %ebx,%ecx
c00053a2:	88 48 01             	mov    %cl,0x1(%eax)
c00053a5:	89 d1                	mov    %edx,%ecx
c00053a7:	c1 e9 04             	shr    $0x4,%ecx
c00053aa:	0f b6 d9             	movzbl %cl,%ebx
c00053ad:	0f b6 48 02          	movzbl 0x2(%eax),%ecx
c00053b1:	83 e1 00             	and    $0x0,%ecx
c00053b4:	09 d9                	or     %ebx,%ecx
c00053b6:	88 48 02             	mov    %cl,0x2(%eax)
c00053b9:	c1 ea 0c             	shr    $0xc,%edx
c00053bc:	0f b6 ca             	movzbl %dl,%ecx
c00053bf:	0f b6 50 03          	movzbl 0x3(%eax),%edx
c00053c3:	83 e2 00             	and    $0x0,%edx
c00053c6:	09 ca                	or     %ecx,%edx
c00053c8:	88 50 03             	mov    %dl,0x3(%eax)
c00053cb:	8b 45 ec             	mov    -0x14(%ebp),%eax
c00053ce:	c1 e0 02             	shl    $0x2,%eax
c00053d1:	03 45 f4             	add    -0xc(%ebp),%eax
c00053d4:	0f b6 10             	movzbl (%eax),%edx
c00053d7:	83 e2 ef             	and    $0xffffffef,%edx
c00053da:	88 10                	mov    %dl,(%eax)
c00053dc:	8b 45 ec             	mov    -0x14(%ebp),%eax
c00053df:	c1 e0 02             	shl    $0x2,%eax
c00053e2:	03 45 f4             	add    -0xc(%ebp),%eax
c00053e5:	0f b6 10             	movzbl (%eax),%edx
c00053e8:	83 e2 f7             	and    $0xfffffff7,%edx
c00053eb:	88 10                	mov    %dl,(%eax)
c00053ed:	8b 45 ec             	mov    -0x14(%ebp),%eax
c00053f0:	c1 e0 02             	shl    $0x2,%eax
c00053f3:	03 45 f4             	add    -0xc(%ebp),%eax
c00053f6:	0f b6 10             	movzbl (%eax),%edx
c00053f9:	83 ca 01             	or     $0x1,%edx
c00053fc:	88 10                	mov    %dl,(%eax)
c00053fe:	8b 45 ec             	mov    -0x14(%ebp),%eax
c0005401:	c1 e0 02             	shl    $0x2,%eax
c0005404:	03 45 f4             	add    -0xc(%ebp),%eax
c0005407:	0f b6 10             	movzbl (%eax),%edx
c000540a:	83 e2 df             	and    $0xffffffdf,%edx
c000540d:	88 10                	mov    %dl,(%eax)
c000540f:	8b 45 ec             	mov    -0x14(%ebp),%eax
c0005412:	c1 e0 02             	shl    $0x2,%eax
c0005415:	03 45 f4             	add    -0xc(%ebp),%eax
c0005418:	0f b6 10             	movzbl (%eax),%edx
c000541b:	83 e2 bf             	and    $0xffffffbf,%edx
c000541e:	88 10                	mov    %dl,(%eax)
c0005420:	8b 45 ec             	mov    -0x14(%ebp),%eax
c0005423:	c1 e0 02             	shl    $0x2,%eax
c0005426:	03 45 f4             	add    -0xc(%ebp),%eax
c0005429:	0f b6 10             	movzbl (%eax),%edx
c000542c:	83 ca 02             	or     $0x2,%edx
c000542f:	88 10                	mov    %dl,(%eax)
c0005431:	8b 45 ec             	mov    -0x14(%ebp),%eax
c0005434:	c1 e0 02             	shl    $0x2,%eax
c0005437:	03 45 f4             	add    -0xc(%ebp),%eax
c000543a:	0f b6 10             	movzbl (%eax),%edx
c000543d:	83 e2 fb             	and    $0xfffffffb,%edx
c0005440:	88 10                	mov    %dl,(%eax)
c0005442:	8b 45 ec             	mov    -0x14(%ebp),%eax
c0005445:	c1 e0 02             	shl    $0x2,%eax
c0005448:	03 45 f4             	add    -0xc(%ebp),%eax
c000544b:	0f b6 50 01          	movzbl 0x1(%eax),%edx
c000544f:	83 e2 fe             	and    $0xfffffffe,%edx
c0005452:	88 50 01             	mov    %dl,0x1(%eax)
c0005455:	8b 45 ec             	mov    -0x14(%ebp),%eax
c0005458:	c1 e0 02             	shl    $0x2,%eax
c000545b:	03 45 f4             	add    -0xc(%ebp),%eax
c000545e:	0f b6 10             	movzbl (%eax),%edx
c0005461:	83 e2 7f             	and    $0x7f,%edx
c0005464:	88 10                	mov    %dl,(%eax)
c0005466:	83 45 ec 01          	addl   $0x1,-0x14(%ebp)
c000546a:	81 7d ec ff 03 00 00 	cmpl   $0x3ff,-0x14(%ebp)
c0005471:	0f 8e c9 fd ff ff    	jle    c0005240 <setupPageDir+0xc2>
c0005477:	8b 45 e8             	mov    -0x18(%ebp),%eax
c000547a:	c1 e0 02             	shl    $0x2,%eax
c000547d:	03 45 e4             	add    -0x1c(%ebp),%eax
c0005480:	8b 55 f4             	mov    -0xc(%ebp),%edx
c0005483:	c1 fa 0c             	sar    $0xc,%edx
c0005486:	81 e2 ff ff 0f 00    	and    $0xfffff,%edx
c000548c:	89 d1                	mov    %edx,%ecx
c000548e:	83 e1 0f             	and    $0xf,%ecx
c0005491:	89 cb                	mov    %ecx,%ebx
c0005493:	c1 e3 04             	shl    $0x4,%ebx
c0005496:	0f b6 48 01          	movzbl 0x1(%eax),%ecx
c000549a:	83 e1 0f             	and    $0xf,%ecx
c000549d:	09 d9                	or     %ebx,%ecx
c000549f:	88 48 01             	mov    %cl,0x1(%eax)
c00054a2:	89 d1                	mov    %edx,%ecx
c00054a4:	c1 e9 04             	shr    $0x4,%ecx
c00054a7:	0f b6 d9             	movzbl %cl,%ebx
c00054aa:	0f b6 48 02          	movzbl 0x2(%eax),%ecx
c00054ae:	83 e1 00             	and    $0x0,%ecx
c00054b1:	09 d9                	or     %ebx,%ecx
c00054b3:	88 48 02             	mov    %cl,0x2(%eax)
c00054b6:	c1 ea 0c             	shr    $0xc,%edx
c00054b9:	0f b6 ca             	movzbl %dl,%ecx
c00054bc:	0f b6 50 03          	movzbl 0x3(%eax),%edx
c00054c0:	83 e2 00             	and    $0x0,%edx
c00054c3:	09 ca                	or     %ecx,%edx
c00054c5:	88 50 03             	mov    %dl,0x3(%eax)
c00054c8:	8b 45 e8             	mov    -0x18(%ebp),%eax
c00054cb:	c1 e0 02             	shl    $0x2,%eax
c00054ce:	03 45 e4             	add    -0x1c(%ebp),%eax
c00054d1:	0f b6 10             	movzbl (%eax),%edx
c00054d4:	83 e2 ef             	and    $0xffffffef,%edx
c00054d7:	88 10                	mov    %dl,(%eax)
c00054d9:	8b 45 e8             	mov    -0x18(%ebp),%eax
c00054dc:	c1 e0 02             	shl    $0x2,%eax
c00054df:	03 45 e4             	add    -0x1c(%ebp),%eax
c00054e2:	0f b6 10             	movzbl (%eax),%edx
c00054e5:	83 e2 f7             	and    $0xfffffff7,%edx
c00054e8:	88 10                	mov    %dl,(%eax)
c00054ea:	8b 45 e8             	mov    -0x18(%ebp),%eax
c00054ed:	c1 e0 02             	shl    $0x2,%eax
c00054f0:	03 45 e4             	add    -0x1c(%ebp),%eax
c00054f3:	0f b6 10             	movzbl (%eax),%edx
c00054f6:	83 e2 df             	and    $0xffffffdf,%edx
c00054f9:	88 10                	mov    %dl,(%eax)
c00054fb:	8b 45 e8             	mov    -0x18(%ebp),%eax
c00054fe:	c1 e0 02             	shl    $0x2,%eax
c0005501:	03 45 e4             	add    -0x1c(%ebp),%eax
c0005504:	0f b6 10             	movzbl (%eax),%edx
c0005507:	83 e2 bf             	and    $0xffffffbf,%edx
c000550a:	88 10                	mov    %dl,(%eax)
c000550c:	8b 45 e8             	mov    -0x18(%ebp),%eax
c000550f:	c1 e0 02             	shl    $0x2,%eax
c0005512:	03 45 e4             	add    -0x1c(%ebp),%eax
c0005515:	83 7d f0 00          	cmpl   $0x0,-0x10(%ebp)
c0005519:	0f 9f c2             	setg   %dl
c000551c:	89 d1                	mov    %edx,%ecx
c000551e:	83 e1 01             	and    $0x1,%ecx
c0005521:	0f b6 10             	movzbl (%eax),%edx
c0005524:	83 e2 fe             	and    $0xfffffffe,%edx
c0005527:	09 ca                	or     %ecx,%edx
c0005529:	88 10                	mov    %dl,(%eax)
c000552b:	8b 45 e8             	mov    -0x18(%ebp),%eax
c000552e:	c1 e0 02             	shl    $0x2,%eax
c0005531:	03 45 e4             	add    -0x1c(%ebp),%eax
c0005534:	0f b6 10             	movzbl (%eax),%edx
c0005537:	83 ca 02             	or     $0x2,%edx
c000553a:	88 10                	mov    %dl,(%eax)
c000553c:	8b 45 e8             	mov    -0x18(%ebp),%eax
c000553f:	c1 e0 02             	shl    $0x2,%eax
c0005542:	03 45 e4             	add    -0x1c(%ebp),%eax
c0005545:	0f b6 10             	movzbl (%eax),%edx
c0005548:	83 e2 7f             	and    $0x7f,%edx
c000554b:	88 10                	mov    %dl,(%eax)
c000554d:	8b 45 e8             	mov    -0x18(%ebp),%eax
c0005550:	c1 e0 02             	shl    $0x2,%eax
c0005553:	03 45 e4             	add    -0x1c(%ebp),%eax
c0005556:	0f b6 10             	movzbl (%eax),%edx
c0005559:	83 e2 fb             	and    $0xfffffffb,%edx
c000555c:	88 10                	mov    %dl,(%eax)
c000555e:	8b 45 e8             	mov    -0x18(%ebp),%eax
c0005561:	c1 e0 02             	shl    $0x2,%eax
c0005564:	03 45 e4             	add    -0x1c(%ebp),%eax
c0005567:	0f b6 50 01          	movzbl 0x1(%eax),%edx
c000556b:	83 e2 fe             	and    $0xfffffffe,%edx
c000556e:	88 50 01             	mov    %dl,0x1(%eax)
c0005571:	83 45 e8 01          	addl   $0x1,-0x18(%ebp)
c0005575:	81 7d e8 ff 03 00 00 	cmpl   $0x3ff,-0x18(%ebp)
c000557c:	0f 8e 53 fc ff ff    	jle    c00051d5 <setupPageDir+0x57>
c0005582:	8b 45 e4             	mov    -0x1c(%ebp),%eax
c0005585:	83 c4 34             	add    $0x34,%esp
c0005588:	5b                   	pop    %ebx
c0005589:	5d                   	pop    %ebp
c000558a:	c3                   	ret    

c000558b <initPaging>:
c000558b:	55                   	push   %ebp
c000558c:	89 e5                	mov    %esp,%ebp
c000558e:	83 ec 28             	sub    $0x28,%esp
c0005591:	e8 e8 fb ff ff       	call   c000517e <setupPageDir>
c0005596:	89 45 f0             	mov    %eax,-0x10(%ebp)
c0005599:	8b 45 f0             	mov    -0x10(%ebp),%eax
c000559c:	89 45 f4             	mov    %eax,-0xc(%ebp)
c000559f:	81 65 f4 00 f0 ff ff 	andl   $0xfffff000,-0xc(%ebp)
c00055a6:	8b 45 f4             	mov    -0xc(%ebp),%eax
c00055a9:	89 04 24             	mov    %eax,(%esp)
c00055ac:	e8 fa ba ff ff       	call   c00010ab <setCR3>
c00055b1:	e8 24 bb ff ff       	call   c00010da <toglePGbit>
c00055b6:	c9                   	leave  
c00055b7:	c3                   	ret    

c00055b8 <panic>:
c00055b8:	55                   	push   %ebp
c00055b9:	89 e5                	mov    %esp,%ebp
c00055bb:	83 ec 18             	sub    $0x18,%esp
c00055be:	b8 88 7b 00 c0       	mov    $0xc0007b88,%eax
c00055c3:	8b 55 08             	mov    0x8(%ebp),%edx
c00055c6:	89 54 24 04          	mov    %edx,0x4(%esp)
c00055ca:	89 04 24             	mov    %eax,(%esp)
c00055cd:	e8 36 01 00 00       	call   c0005708 <printf>
c00055d2:	e8 3f bb ff ff       	call   c0001116 <endProg>
c00055d7:	c9                   	leave  
c00055d8:	c3                   	ret    
c00055d9:	00 00                	add    %al,(%eax)
	...

c00055dc <textInit>:
c00055dc:	55                   	push   %ebp
c00055dd:	89 e5                	mov    %esp,%ebp
c00055df:	83 ec 18             	sub    $0x18,%esp
c00055e2:	c7 04 24 19 00 00 00 	movl   $0x19,(%esp)
c00055e9:	e8 02 00 00 00       	call   c00055f0 <scroll>
c00055ee:	c9                   	leave  
c00055ef:	c3                   	ret    

c00055f0 <scroll>:
c00055f0:	55                   	push   %ebp
c00055f1:	89 e5                	mov    %esp,%ebp
c00055f3:	83 ec 14             	sub    $0x14,%esp
c00055f6:	8b 45 08             	mov    0x8(%ebp),%eax
c00055f9:	88 45 ec             	mov    %al,-0x14(%ebp)
c00055fc:	c7 45 fc 00 80 0b 00 	movl   $0xb8000,-0x4(%ebp)
c0005603:	c7 45 f8 00 00 00 00 	movl   $0x0,-0x8(%ebp)
c000560a:	eb 4f                	jmp    c000565b <scroll+0x6b>
c000560c:	c7 45 f4 00 00 00 00 	movl   $0x0,-0xc(%ebp)
c0005613:	eb 3c                	jmp    c0005651 <scroll+0x61>
c0005615:	8b 55 f8             	mov    -0x8(%ebp),%edx
c0005618:	89 d0                	mov    %edx,%eax
c000561a:	c1 e0 02             	shl    $0x2,%eax
c000561d:	01 d0                	add    %edx,%eax
c000561f:	c1 e0 04             	shl    $0x4,%eax
c0005622:	03 45 f4             	add    -0xc(%ebp),%eax
c0005625:	01 c0                	add    %eax,%eax
c0005627:	89 c1                	mov    %eax,%ecx
c0005629:	03 4d fc             	add    -0x4(%ebp),%ecx
c000562c:	0f b6 45 ec          	movzbl -0x14(%ebp),%eax
c0005630:	89 c2                	mov    %eax,%edx
c0005632:	03 55 f8             	add    -0x8(%ebp),%edx
c0005635:	89 d0                	mov    %edx,%eax
c0005637:	c1 e0 02             	shl    $0x2,%eax
c000563a:	01 d0                	add    %edx,%eax
c000563c:	c1 e0 04             	shl    $0x4,%eax
c000563f:	03 45 f4             	add    -0xc(%ebp),%eax
c0005642:	01 c0                	add    %eax,%eax
c0005644:	03 45 fc             	add    -0x4(%ebp),%eax
c0005647:	0f b7 00             	movzwl (%eax),%eax
c000564a:	66 89 01             	mov    %ax,(%ecx)
c000564d:	83 45 f4 01          	addl   $0x1,-0xc(%ebp)
c0005651:	83 7d f4 4f          	cmpl   $0x4f,-0xc(%ebp)
c0005655:	7e be                	jle    c0005615 <scroll+0x25>
c0005657:	83 45 f8 01          	addl   $0x1,-0x8(%ebp)
c000565b:	0f b6 45 ec          	movzbl -0x14(%ebp),%eax
c000565f:	ba 19 00 00 00       	mov    $0x19,%edx
c0005664:	89 d1                	mov    %edx,%ecx
c0005666:	29 c1                	sub    %eax,%ecx
c0005668:	89 c8                	mov    %ecx,%eax
c000566a:	3b 45 f8             	cmp    -0x8(%ebp),%eax
c000566d:	7f 9d                	jg     c000560c <scroll+0x1c>
c000566f:	eb 3f                	jmp    c00056b0 <scroll+0xc0>
c0005671:	c7 45 f4 00 00 00 00 	movl   $0x0,-0xc(%ebp)
c0005678:	eb 2c                	jmp    c00056a6 <scroll+0xb6>
c000567a:	8b 55 f8             	mov    -0x8(%ebp),%edx
c000567d:	89 d0                	mov    %edx,%eax
c000567f:	c1 e0 02             	shl    $0x2,%eax
c0005682:	01 d0                	add    %edx,%eax
c0005684:	c1 e0 04             	shl    $0x4,%eax
c0005687:	03 45 f4             	add    -0xc(%ebp),%eax
c000568a:	01 c0                	add    %eax,%eax
c000568c:	03 45 fc             	add    -0x4(%ebp),%eax
c000568f:	0f b6 15 8c 73 00 c0 	movzbl 0xc000738c,%edx
c0005696:	0f be d2             	movsbl %dl,%edx
c0005699:	c1 e2 08             	shl    $0x8,%edx
c000569c:	83 ca 20             	or     $0x20,%edx
c000569f:	66 89 10             	mov    %dx,(%eax)
c00056a2:	83 45 f4 01          	addl   $0x1,-0xc(%ebp)
c00056a6:	83 7d f4 4f          	cmpl   $0x4f,-0xc(%ebp)
c00056aa:	7e ce                	jle    c000567a <scroll+0x8a>
c00056ac:	83 45 f8 01          	addl   $0x1,-0x8(%ebp)
c00056b0:	83 7d f8 18          	cmpl   $0x18,-0x8(%ebp)
c00056b4:	7e bb                	jle    c0005671 <scroll+0x81>
c00056b6:	80 7d ec 18          	cmpb   $0x18,-0x14(%ebp)
c00056ba:	76 16                	jbe    c00056d2 <scroll+0xe2>
c00056bc:	c7 05 80 73 00 c0 00 	movl   $0x0,0xc0007380
c00056c3:	00 00 00 
c00056c6:	c7 05 84 73 00 c0 00 	movl   $0x0,0xc0007384
c00056cd:	00 00 00 
c00056d0:	eb 15                	jmp    c00056e7 <scroll+0xf7>
c00056d2:	8b 15 84 73 00 c0    	mov    0xc0007384,%edx
c00056d8:	0f b6 45 ec          	movzbl -0x14(%ebp),%eax
c00056dc:	89 d1                	mov    %edx,%ecx
c00056de:	29 c1                	sub    %eax,%ecx
c00056e0:	89 c8                	mov    %ecx,%eax
c00056e2:	a3 84 73 00 c0       	mov    %eax,0xc0007384
c00056e7:	c9                   	leave  
c00056e8:	c3                   	ret    

c00056e9 <println>:
c00056e9:	55                   	push   %ebp
c00056ea:	89 e5                	mov    %esp,%ebp
c00056ec:	83 ec 18             	sub    $0x18,%esp
c00056ef:	8b 45 08             	mov    0x8(%ebp),%eax
c00056f2:	89 04 24             	mov    %eax,(%esp)
c00056f5:	e8 0e 00 00 00       	call   c0005708 <printf>
c00056fa:	c7 04 24 0a 00 00 00 	movl   $0xa,(%esp)
c0005701:	e8 32 08 00 00       	call   c0005f38 <putc>
c0005706:	c9                   	leave  
c0005707:	c3                   	ret    

c0005708 <printf>:
c0005708:	55                   	push   %ebp
c0005709:	89 e5                	mov    %esp,%ebp
c000570b:	83 ec 28             	sub    $0x28,%esp
c000570e:	8d 45 08             	lea    0x8(%ebp),%eax
c0005711:	83 c0 04             	add    $0x4,%eax
c0005714:	89 45 f0             	mov    %eax,-0x10(%ebp)
c0005717:	c7 45 ec 00 00 00 00 	movl   $0x0,-0x14(%ebp)
c000571e:	e9 e0 01 00 00       	jmp    c0005903 <printf+0x1fb>
c0005723:	8b 55 08             	mov    0x8(%ebp),%edx
c0005726:	8b 45 ec             	mov    -0x14(%ebp),%eax
c0005729:	8d 04 02             	lea    (%edx,%eax,1),%eax
c000572c:	0f b6 00             	movzbl (%eax),%eax
c000572f:	3c 25                	cmp    $0x25,%al
c0005731:	74 1c                	je     c000574f <printf+0x47>
c0005733:	8b 55 08             	mov    0x8(%ebp),%edx
c0005736:	8b 45 ec             	mov    -0x14(%ebp),%eax
c0005739:	8d 04 02             	lea    (%edx,%eax,1),%eax
c000573c:	0f b6 00             	movzbl (%eax),%eax
c000573f:	0f b6 c0             	movzbl %al,%eax
c0005742:	89 04 24             	mov    %eax,(%esp)
c0005745:	e8 ee 07 00 00       	call   c0005f38 <putc>
c000574a:	e9 b0 01 00 00       	jmp    c00058ff <printf+0x1f7>
c000574f:	83 45 ec 01          	addl   $0x1,-0x14(%ebp)
c0005753:	8b 45 08             	mov    0x8(%ebp),%eax
c0005756:	8b 55 ec             	mov    -0x14(%ebp),%edx
c0005759:	83 c2 01             	add    $0x1,%edx
c000575c:	01 d0                	add    %edx,%eax
c000575e:	0f b6 00             	movzbl (%eax),%eax
c0005761:	84 c0                	test   %al,%al
c0005763:	75 1c                	jne    c0005781 <printf+0x79>
c0005765:	8b 55 08             	mov    0x8(%ebp),%edx
c0005768:	8b 45 ec             	mov    -0x14(%ebp),%eax
c000576b:	8d 04 02             	lea    (%edx,%eax,1),%eax
c000576e:	0f b6 00             	movzbl (%eax),%eax
c0005771:	0f b6 c0             	movzbl %al,%eax
c0005774:	89 04 24             	mov    %eax,(%esp)
c0005777:	e8 bc 07 00 00       	call   c0005f38 <putc>
c000577c:	e9 96 01 00 00       	jmp    c0005917 <printf+0x20f>
c0005781:	8b 55 08             	mov    0x8(%ebp),%edx
c0005784:	8b 45 ec             	mov    -0x14(%ebp),%eax
c0005787:	8d 04 02             	lea    (%edx,%eax,1),%eax
c000578a:	0f b6 00             	movzbl (%eax),%eax
c000578d:	0f b6 c0             	movzbl %al,%eax
c0005790:	83 f8 69             	cmp    $0x69,%eax
c0005793:	74 71                	je     c0005806 <printf+0xfe>
c0005795:	83 f8 69             	cmp    $0x69,%eax
c0005798:	7f 2f                	jg     c00057c9 <printf+0xc1>
c000579a:	83 f8 63             	cmp    $0x63,%eax
c000579d:	0f 84 21 01 00 00    	je     c00058c4 <printf+0x1bc>
c00057a3:	83 f8 63             	cmp    $0x63,%eax
c00057a6:	7f 17                	jg     c00057bf <printf+0xb7>
c00057a8:	83 f8 25             	cmp    $0x25,%eax
c00057ab:	0f 84 42 01 00 00    	je     c00058f3 <printf+0x1eb>
c00057b1:	83 f8 58             	cmp    $0x58,%eax
c00057b4:	0f 84 dc 00 00 00    	je     c0005896 <printf+0x18e>
c00057ba:	e9 40 01 00 00       	jmp    c00058ff <printf+0x1f7>
c00057bf:	83 f8 64             	cmp    $0x64,%eax
c00057c2:	74 21                	je     c00057e5 <printf+0xdd>
c00057c4:	e9 36 01 00 00       	jmp    c00058ff <printf+0x1f7>
c00057c9:	83 f8 75             	cmp    $0x75,%eax
c00057cc:	74 69                	je     c0005837 <printf+0x12f>
c00057ce:	83 f8 78             	cmp    $0x78,%eax
c00057d1:	0f 84 91 00 00 00    	je     c0005868 <printf+0x160>
c00057d7:	83 f8 73             	cmp    $0x73,%eax
c00057da:	0f 84 fd 00 00 00    	je     c00058dd <printf+0x1d5>
c00057e0:	e9 1a 01 00 00       	jmp    c00058ff <printf+0x1f7>
c00057e5:	83 45 f0 08          	addl   $0x8,-0x10(%ebp)
c00057e9:	8b 45 f0             	mov    -0x10(%ebp),%eax
c00057ec:	83 e8 08             	sub    $0x8,%eax
c00057ef:	dd 00                	fldl   (%eax)
c00057f1:	c7 44 24 08 0a 00 00 	movl   $0xa,0x8(%esp)
c00057f8:	00 
c00057f9:	dd 1c 24             	fstpl  (%esp)
c00057fc:	e8 bc 06 00 00       	call   c0005ebd <printDecimalNum>
c0005801:	e9 f9 00 00 00       	jmp    c00058ff <printf+0x1f7>
c0005806:	83 45 f0 04          	addl   $0x4,-0x10(%ebp)
c000580a:	8b 45 f0             	mov    -0x10(%ebp),%eax
c000580d:	83 e8 04             	sub    $0x4,%eax
c0005810:	8b 00                	mov    (%eax),%eax
c0005812:	c7 44 24 0c 00 00 00 	movl   $0x0,0xc(%esp)
c0005819:	00 
c000581a:	c7 44 24 08 01 00 00 	movl   $0x1,0x8(%esp)
c0005821:	00 
c0005822:	c7 44 24 04 0a 00 00 	movl   $0xa,0x4(%esp)
c0005829:	00 
c000582a:	89 04 24             	mov    %eax,(%esp)
c000582d:	e8 88 05 00 00       	call   c0005dba <printNum>
c0005832:	e9 c8 00 00 00       	jmp    c00058ff <printf+0x1f7>
c0005837:	83 45 f0 04          	addl   $0x4,-0x10(%ebp)
c000583b:	8b 45 f0             	mov    -0x10(%ebp),%eax
c000583e:	83 e8 04             	sub    $0x4,%eax
c0005841:	8b 00                	mov    (%eax),%eax
c0005843:	c7 44 24 0c 00 00 00 	movl   $0x0,0xc(%esp)
c000584a:	00 
c000584b:	c7 44 24 08 00 00 00 	movl   $0x0,0x8(%esp)
c0005852:	00 
c0005853:	c7 44 24 04 0a 00 00 	movl   $0xa,0x4(%esp)
c000585a:	00 
c000585b:	89 04 24             	mov    %eax,(%esp)
c000585e:	e8 57 05 00 00       	call   c0005dba <printNum>
c0005863:	e9 97 00 00 00       	jmp    c00058ff <printf+0x1f7>
c0005868:	83 45 f0 04          	addl   $0x4,-0x10(%ebp)
c000586c:	8b 45 f0             	mov    -0x10(%ebp),%eax
c000586f:	83 e8 04             	sub    $0x4,%eax
c0005872:	8b 00                	mov    (%eax),%eax
c0005874:	c7 44 24 0c 00 00 00 	movl   $0x0,0xc(%esp)
c000587b:	00 
c000587c:	c7 44 24 08 00 00 00 	movl   $0x0,0x8(%esp)
c0005883:	00 
c0005884:	c7 44 24 04 10 00 00 	movl   $0x10,0x4(%esp)
c000588b:	00 
c000588c:	89 04 24             	mov    %eax,(%esp)
c000588f:	e8 26 05 00 00       	call   c0005dba <printNum>
c0005894:	eb 69                	jmp    c00058ff <printf+0x1f7>
c0005896:	83 45 f0 04          	addl   $0x4,-0x10(%ebp)
c000589a:	8b 45 f0             	mov    -0x10(%ebp),%eax
c000589d:	83 e8 04             	sub    $0x4,%eax
c00058a0:	8b 00                	mov    (%eax),%eax
c00058a2:	c7 44 24 0c 01 00 00 	movl   $0x1,0xc(%esp)
c00058a9:	00 
c00058aa:	c7 44 24 08 00 00 00 	movl   $0x0,0x8(%esp)
c00058b1:	00 
c00058b2:	c7 44 24 04 10 00 00 	movl   $0x10,0x4(%esp)
c00058b9:	00 
c00058ba:	89 04 24             	mov    %eax,(%esp)
c00058bd:	e8 f8 04 00 00       	call   c0005dba <printNum>
c00058c2:	eb 3b                	jmp    c00058ff <printf+0x1f7>
c00058c4:	83 45 f0 04          	addl   $0x4,-0x10(%ebp)
c00058c8:	8b 45 f0             	mov    -0x10(%ebp),%eax
c00058cb:	83 e8 04             	sub    $0x4,%eax
c00058ce:	8b 00                	mov    (%eax),%eax
c00058d0:	0f b6 c0             	movzbl %al,%eax
c00058d3:	89 04 24             	mov    %eax,(%esp)
c00058d6:	e8 5d 06 00 00       	call   c0005f38 <putc>
c00058db:	eb 22                	jmp    c00058ff <printf+0x1f7>
c00058dd:	83 45 f0 04          	addl   $0x4,-0x10(%ebp)
c00058e1:	8b 45 f0             	mov    -0x10(%ebp),%eax
c00058e4:	83 e8 04             	sub    $0x4,%eax
c00058e7:	8b 00                	mov    (%eax),%eax
c00058e9:	89 04 24             	mov    %eax,(%esp)
c00058ec:	e8 17 fe ff ff       	call   c0005708 <printf>
c00058f1:	eb 0c                	jmp    c00058ff <printf+0x1f7>
c00058f3:	c7 04 24 25 00 00 00 	movl   $0x25,(%esp)
c00058fa:	e8 39 06 00 00       	call   c0005f38 <putc>
c00058ff:	83 45 ec 01          	addl   $0x1,-0x14(%ebp)
c0005903:	8b 55 08             	mov    0x8(%ebp),%edx
c0005906:	8b 45 ec             	mov    -0x14(%ebp),%eax
c0005909:	8d 04 02             	lea    (%edx,%eax,1),%eax
c000590c:	0f b6 00             	movzbl (%eax),%eax
c000590f:	84 c0                	test   %al,%al
c0005911:	0f 85 0c fe ff ff    	jne    c0005723 <printf+0x1b>
c0005917:	c9                   	leave  
c0005918:	c3                   	ret    

c0005919 <atoi>:
c0005919:	55                   	push   %ebp
c000591a:	89 e5                	mov    %esp,%ebp
c000591c:	83 ec 10             	sub    $0x10,%esp
c000591f:	c7 45 f8 00 00 00 00 	movl   $0x0,-0x8(%ebp)
c0005926:	c7 45 fc 00 00 00 00 	movl   $0x0,-0x4(%ebp)
c000592d:	eb 64                	jmp    c0005993 <atoi+0x7a>
c000592f:	8b 45 f8             	mov    -0x8(%ebp),%eax
c0005932:	03 45 08             	add    0x8(%ebp),%eax
c0005935:	0f b6 00             	movzbl (%eax),%eax
c0005938:	3c 2f                	cmp    $0x2f,%al
c000593a:	7e 57                	jle    c0005993 <atoi+0x7a>
c000593c:	8b 45 f8             	mov    -0x8(%ebp),%eax
c000593f:	03 45 08             	add    0x8(%ebp),%eax
c0005942:	0f b6 00             	movzbl (%eax),%eax
c0005945:	3c 39                	cmp    $0x39,%al
c0005947:	7f 4a                	jg     c0005993 <atoi+0x7a>
c0005949:	8b 55 fc             	mov    -0x4(%ebp),%edx
c000594c:	89 d0                	mov    %edx,%eax
c000594e:	c1 e0 02             	shl    $0x2,%eax
c0005951:	01 d0                	add    %edx,%eax
c0005953:	01 c0                	add    %eax,%eax
c0005955:	89 c2                	mov    %eax,%edx
c0005957:	f7 d2                	not    %edx
c0005959:	8b 45 f8             	mov    -0x8(%ebp),%eax
c000595c:	03 45 08             	add    0x8(%ebp),%eax
c000595f:	0f b6 00             	movzbl (%eax),%eax
c0005962:	0f be c0             	movsbl %al,%eax
c0005965:	83 e8 30             	sub    $0x30,%eax
c0005968:	39 c2                	cmp    %eax,%edx
c000596a:	76 3f                	jbe    c00059ab <atoi+0x92>
c000596c:	8b 55 fc             	mov    -0x4(%ebp),%edx
c000596f:	89 d0                	mov    %edx,%eax
c0005971:	c1 e0 02             	shl    $0x2,%eax
c0005974:	01 d0                	add    %edx,%eax
c0005976:	01 c0                	add    %eax,%eax
c0005978:	89 c2                	mov    %eax,%edx
c000597a:	8b 45 f8             	mov    -0x8(%ebp),%eax
c000597d:	03 45 08             	add    0x8(%ebp),%eax
c0005980:	0f b6 00             	movzbl (%eax),%eax
c0005983:	0f be c0             	movsbl %al,%eax
c0005986:	83 e8 30             	sub    $0x30,%eax
c0005989:	8d 04 02             	lea    (%edx,%eax,1),%eax
c000598c:	89 45 fc             	mov    %eax,-0x4(%ebp)
c000598f:	83 45 f8 01          	addl   $0x1,-0x8(%ebp)
c0005993:	8b 45 f8             	mov    -0x8(%ebp),%eax
c0005996:	03 45 08             	add    0x8(%ebp),%eax
c0005999:	0f b6 00             	movzbl (%eax),%eax
c000599c:	84 c0                	test   %al,%al
c000599e:	74 0c                	je     c00059ac <atoi+0x93>
c00059a0:	81 7d fc ff ff ff 1f 	cmpl   $0x1fffffff,-0x4(%ebp)
c00059a7:	7e 86                	jle    c000592f <atoi+0x16>
c00059a9:	eb 01                	jmp    c00059ac <atoi+0x93>
c00059ab:	90                   	nop
c00059ac:	8b 45 08             	mov    0x8(%ebp),%eax
c00059af:	0f b6 00             	movzbl (%eax),%eax
c00059b2:	3c 2d                	cmp    $0x2d,%al
c00059b4:	75 03                	jne    c00059b9 <atoi+0xa0>
c00059b6:	f7 5d fc             	negl   -0x4(%ebp)
c00059b9:	8b 45 fc             	mov    -0x4(%ebp),%eax
c00059bc:	c9                   	leave  
c00059bd:	c3                   	ret    

c00059be <formatInt>:
c00059be:	55                   	push   %ebp
c00059bf:	89 e5                	mov    %esp,%ebp
c00059c1:	83 ec 28             	sub    $0x28,%esp
c00059c4:	8b 55 14             	mov    0x14(%ebp),%edx
c00059c7:	8b 45 18             	mov    0x18(%ebp),%eax
c00059ca:	88 55 dc             	mov    %dl,-0x24(%ebp)
c00059cd:	88 45 d8             	mov    %al,-0x28(%ebp)
c00059d0:	8b 45 08             	mov    0x8(%ebp),%eax
c00059d3:	89 45 ec             	mov    %eax,-0x14(%ebp)
c00059d6:	83 7d 10 24          	cmpl   $0x24,0x10(%ebp)
c00059da:	77 06                	ja     c00059e2 <formatInt+0x24>
c00059dc:	83 7d 10 01          	cmpl   $0x1,0x10(%ebp)
c00059e0:	77 0a                	ja     c00059ec <formatInt+0x2e>
c00059e2:	b8 00 00 00 00       	mov    $0x0,%eax
c00059e7:	e9 c5 00 00 00       	jmp    c0005ab1 <formatInt+0xf3>
c00059ec:	c7 45 f0 00 00 00 00 	movl   $0x0,-0x10(%ebp)
c00059f3:	83 7d 0c 00          	cmpl   $0x0,0xc(%ebp)
c00059f7:	79 17                	jns    c0005a10 <formatInt+0x52>
c00059f9:	80 7d dc 00          	cmpb   $0x0,-0x24(%ebp)
c00059fd:	74 11                	je     c0005a10 <formatInt+0x52>
c00059ff:	8b 45 08             	mov    0x8(%ebp),%eax
c0005a02:	c6 00 2d             	movb   $0x2d,(%eax)
c0005a05:	83 45 08 01          	addl   $0x1,0x8(%ebp)
c0005a09:	83 45 f0 01          	addl   $0x1,-0x10(%ebp)
c0005a0d:	f7 5d 0c             	negl   0xc(%ebp)
c0005a10:	8b 45 10             	mov    0x10(%ebp),%eax
c0005a13:	89 45 f4             	mov    %eax,-0xc(%ebp)
c0005a16:	8b 45 0c             	mov    0xc(%ebp),%eax
c0005a19:	ba 00 00 00 00       	mov    $0x0,%edx
c0005a1e:	f7 75 10             	divl   0x10(%ebp)
c0005a21:	89 45 f8             	mov    %eax,-0x8(%ebp)
c0005a24:	83 7d f8 00          	cmpl   $0x0,-0x8(%ebp)
c0005a28:	74 1a                	je     c0005a44 <formatInt+0x86>
c0005a2a:	eb 0e                	jmp    c0005a3a <formatInt+0x7c>
c0005a2c:	8b 45 f4             	mov    -0xc(%ebp),%eax
c0005a2f:	0f af 45 10          	imul   0x10(%ebp),%eax
c0005a33:	89 45 f4             	mov    %eax,-0xc(%ebp)
c0005a36:	83 45 f0 01          	addl   $0x1,-0x10(%ebp)
c0005a3a:	8b 45 f4             	mov    -0xc(%ebp),%eax
c0005a3d:	3b 45 f8             	cmp    -0x8(%ebp),%eax
c0005a40:	76 ea                	jbe    c0005a2c <formatInt+0x6e>
c0005a42:	eb 61                	jmp    c0005aa5 <formatInt+0xe7>
c0005a44:	83 6d f0 01          	subl   $0x1,-0x10(%ebp)
c0005a48:	c7 45 f4 01 00 00 00 	movl   $0x1,-0xc(%ebp)
c0005a4f:	eb 54                	jmp    c0005aa5 <formatInt+0xe7>
c0005a51:	8b 45 0c             	mov    0xc(%ebp),%eax
c0005a54:	ba 00 00 00 00       	mov    $0x0,%edx
c0005a59:	f7 75 f4             	divl   -0xc(%ebp)
c0005a5c:	89 45 fc             	mov    %eax,-0x4(%ebp)
c0005a5f:	8b 55 08             	mov    0x8(%ebp),%edx
c0005a62:	80 7d d8 00          	cmpb   $0x0,-0x28(%ebp)
c0005a66:	74 0c                	je     c0005a74 <formatInt+0xb6>
c0005a68:	8b 45 fc             	mov    -0x4(%ebp),%eax
c0005a6b:	0f b6 80 e0 73 00 c0 	movzbl -0x3fff8c20(%eax),%eax
c0005a72:	eb 0a                	jmp    c0005a7e <formatInt+0xc0>
c0005a74:	8b 45 fc             	mov    -0x4(%ebp),%eax
c0005a77:	0f b6 80 a0 73 00 c0 	movzbl -0x3fff8c60(%eax),%eax
c0005a7e:	88 02                	mov    %al,(%edx)
c0005a80:	83 45 08 01          	addl   $0x1,0x8(%ebp)
c0005a84:	8b 55 0c             	mov    0xc(%ebp),%edx
c0005a87:	8b 45 fc             	mov    -0x4(%ebp),%eax
c0005a8a:	0f af 45 f4          	imul   -0xc(%ebp),%eax
c0005a8e:	89 d1                	mov    %edx,%ecx
c0005a90:	29 c1                	sub    %eax,%ecx
c0005a92:	89 c8                	mov    %ecx,%eax
c0005a94:	89 45 0c             	mov    %eax,0xc(%ebp)
c0005a97:	8b 45 f4             	mov    -0xc(%ebp),%eax
c0005a9a:	ba 00 00 00 00       	mov    $0x0,%edx
c0005a9f:	f7 75 10             	divl   0x10(%ebp)
c0005aa2:	89 45 f4             	mov    %eax,-0xc(%ebp)
c0005aa5:	83 7d f4 00          	cmpl   $0x0,-0xc(%ebp)
c0005aa9:	75 a6                	jne    c0005a51 <formatInt+0x93>
c0005aab:	8b 45 f0             	mov    -0x10(%ebp),%eax
c0005aae:	83 c0 02             	add    $0x2,%eax
c0005ab1:	c9                   	leave  
c0005ab2:	c3                   	ret    

c0005ab3 <itoa>:
c0005ab3:	55                   	push   %ebp
c0005ab4:	89 e5                	mov    %esp,%ebp
c0005ab6:	83 ec 24             	sub    $0x24,%esp
c0005ab9:	83 7d 10 0a          	cmpl   $0xa,0x10(%ebp)
c0005abd:	0f 94 c0             	sete   %al
c0005ac0:	0f b6 d0             	movzbl %al,%edx
c0005ac3:	8b 45 08             	mov    0x8(%ebp),%eax
c0005ac6:	c7 44 24 10 00 00 00 	movl   $0x0,0x10(%esp)
c0005acd:	00 
c0005ace:	89 54 24 0c          	mov    %edx,0xc(%esp)
c0005ad2:	8b 55 10             	mov    0x10(%ebp),%edx
c0005ad5:	89 54 24 08          	mov    %edx,0x8(%esp)
c0005ad9:	89 44 24 04          	mov    %eax,0x4(%esp)
c0005add:	8b 45 0c             	mov    0xc(%ebp),%eax
c0005ae0:	89 04 24             	mov    %eax,(%esp)
c0005ae3:	e8 d6 fe ff ff       	call   c00059be <formatInt>
c0005ae8:	89 45 fc             	mov    %eax,-0x4(%ebp)
c0005aeb:	8b 45 fc             	mov    -0x4(%ebp),%eax
c0005aee:	03 45 0c             	add    0xc(%ebp),%eax
c0005af1:	c6 00 00             	movb   $0x0,(%eax)
c0005af4:	8b 45 0c             	mov    0xc(%ebp),%eax
c0005af7:	c9                   	leave  
c0005af8:	c3                   	ret    

c0005af9 <formatDouble>:
c0005af9:	55                   	push   %ebp
c0005afa:	89 e5                	mov    %esp,%ebp
c0005afc:	83 ec 58             	sub    $0x58,%esp
c0005aff:	8b 55 18             	mov    0x18(%ebp),%edx
c0005b02:	8b 45 1c             	mov    0x1c(%ebp),%eax
c0005b05:	8b 4d 0c             	mov    0xc(%ebp),%ecx
c0005b08:	89 4d e0             	mov    %ecx,-0x20(%ebp)
c0005b0b:	8b 4d 10             	mov    0x10(%ebp),%ecx
c0005b0e:	89 4d e4             	mov    %ecx,-0x1c(%ebp)
c0005b11:	88 55 dc             	mov    %dl,-0x24(%ebp)
c0005b14:	88 45 d8             	mov    %al,-0x28(%ebp)
c0005b17:	83 7d 14 24          	cmpl   $0x24,0x14(%ebp)
c0005b1b:	77 06                	ja     c0005b23 <formatDouble+0x2a>
c0005b1d:	83 7d 14 01          	cmpl   $0x1,0x14(%ebp)
c0005b21:	77 0a                	ja     c0005b2d <formatDouble+0x34>
c0005b23:	b8 00 00 00 00       	mov    $0x0,%eax
c0005b28:	e9 3f 02 00 00       	jmp    c0005d6c <formatDouble+0x273>
c0005b2d:	c7 45 e8 00 00 00 00 	movl   $0x0,-0x18(%ebp)
c0005b34:	0f b6 55 dc          	movzbl -0x24(%ebp),%edx
c0005b38:	dd 45 e0             	fldl   -0x20(%ebp)
c0005b3b:	d9 7d d6             	fnstcw -0x2a(%ebp)
c0005b3e:	0f b7 45 d6          	movzwl -0x2a(%ebp),%eax
c0005b42:	b4 0c                	mov    $0xc,%ah
c0005b44:	66 89 45 d4          	mov    %ax,-0x2c(%ebp)
c0005b48:	d9 6d d4             	fldcw  -0x2c(%ebp)
c0005b4b:	db 5d d0             	fistpl -0x30(%ebp)
c0005b4e:	d9 6d d6             	fldcw  -0x2a(%ebp)
c0005b51:	8b 45 d0             	mov    -0x30(%ebp),%eax
c0005b54:	89 54 24 10          	mov    %edx,0x10(%esp)
c0005b58:	c7 44 24 0c 01 00 00 	movl   $0x1,0xc(%esp)
c0005b5f:	00 
c0005b60:	8b 55 14             	mov    0x14(%ebp),%edx
c0005b63:	89 54 24 08          	mov    %edx,0x8(%esp)
c0005b67:	89 44 24 04          	mov    %eax,0x4(%esp)
c0005b6b:	8b 45 08             	mov    0x8(%ebp),%eax
c0005b6e:	89 04 24             	mov    %eax,(%esp)
c0005b71:	e8 48 fe ff ff       	call   c00059be <formatInt>
c0005b76:	89 45 ec             	mov    %eax,-0x14(%ebp)
c0005b79:	80 7d d8 00          	cmpb   $0x0,-0x28(%ebp)
c0005b7d:	74 3b                	je     c0005bba <formatDouble+0xc1>
c0005b7f:	8b 45 ec             	mov    -0x14(%ebp),%eax
c0005b82:	83 e8 01             	sub    $0x1,%eax
c0005b85:	89 45 e8             	mov    %eax,-0x18(%ebp)
c0005b88:	83 7d e8 00          	cmpl   $0x0,-0x18(%ebp)
c0005b8c:	74 2c                	je     c0005bba <formatDouble+0xc1>
c0005b8e:	8b 45 ec             	mov    -0x14(%ebp),%eax
c0005b91:	8b 55 08             	mov    0x8(%ebp),%edx
c0005b94:	8d 4a 01             	lea    0x1(%edx),%ecx
c0005b97:	8b 55 08             	mov    0x8(%ebp),%edx
c0005b9a:	83 c2 02             	add    $0x2,%edx
c0005b9d:	89 44 24 08          	mov    %eax,0x8(%esp)
c0005ba1:	89 4c 24 04          	mov    %ecx,0x4(%esp)
c0005ba5:	89 14 24             	mov    %edx,(%esp)
c0005ba8:	e8 fc ef ff ff       	call   c0004ba9 <memcpy>
c0005bad:	8b 45 08             	mov    0x8(%ebp),%eax
c0005bb0:	83 c0 01             	add    $0x1,%eax
c0005bb3:	c6 00 2e             	movb   $0x2e,(%eax)
c0005bb6:	83 45 ec 01          	addl   $0x1,-0x14(%ebp)
c0005bba:	8b 45 ec             	mov    -0x14(%ebp),%eax
c0005bbd:	01 45 08             	add    %eax,0x8(%ebp)
c0005bc0:	dd 45 e0             	fldl   -0x20(%ebp)
c0005bc3:	d9 7d d6             	fnstcw -0x2a(%ebp)
c0005bc6:	0f b7 45 d6          	movzwl -0x2a(%ebp),%eax
c0005bca:	b4 0c                	mov    $0xc,%ah
c0005bcc:	66 89 45 d4          	mov    %ax,-0x2c(%ebp)
c0005bd0:	d9 6d d4             	fldcw  -0x2c(%ebp)
c0005bd3:	db 5d d0             	fistpl -0x30(%ebp)
c0005bd6:	d9 6d d6             	fldcw  -0x2a(%ebp)
c0005bd9:	8b 45 d0             	mov    -0x30(%ebp),%eax
c0005bdc:	89 45 d0             	mov    %eax,-0x30(%ebp)
c0005bdf:	db 45 d0             	fildl  -0x30(%ebp)
c0005be2:	dd 45 e0             	fldl   -0x20(%ebp)
c0005be5:	de e1                	fsubp  %st,%st(1)
c0005be7:	dd 5d f0             	fstpl  -0x10(%ebp)
c0005bea:	dd 45 f0             	fldl   -0x10(%ebp)
c0005bed:	d9 ee                	fldz   
c0005bef:	d9 c9                	fxch   %st(1)
c0005bf1:	da e9                	fucompp 
c0005bf3:	df e0                	fnstsw %ax
c0005bf5:	9e                   	sahf   
c0005bf6:	75 67                	jne    c0005c5f <formatDouble+0x166>
c0005bf8:	7a 65                	jp     c0005c5f <formatDouble+0x166>
c0005bfa:	80 7d d8 00          	cmpb   $0x0,-0x28(%ebp)
c0005bfe:	74 57                	je     c0005c57 <formatDouble+0x15e>
c0005c00:	8b 55 08             	mov    0x8(%ebp),%edx
c0005c03:	80 7d dc 00          	cmpb   $0x0,-0x24(%ebp)
c0005c07:	74 07                	je     c0005c10 <formatDouble+0x117>
c0005c09:	b8 45 00 00 00       	mov    $0x45,%eax
c0005c0e:	eb 05                	jmp    c0005c15 <formatDouble+0x11c>
c0005c10:	b8 65 00 00 00       	mov    $0x65,%eax
c0005c15:	88 02                	mov    %al,(%edx)
c0005c17:	83 45 08 01          	addl   $0x1,0x8(%ebp)
c0005c1b:	83 7d e8 00          	cmpl   $0x0,-0x18(%ebp)
c0005c1f:	78 0a                	js     c0005c2b <formatDouble+0x132>
c0005c21:	8b 45 08             	mov    0x8(%ebp),%eax
c0005c24:	c6 00 2b             	movb   $0x2b,(%eax)
c0005c27:	83 45 08 01          	addl   $0x1,0x8(%ebp)
c0005c2b:	0f b6 45 dc          	movzbl -0x24(%ebp),%eax
c0005c2f:	89 44 24 10          	mov    %eax,0x10(%esp)
c0005c33:	c7 44 24 0c 01 00 00 	movl   $0x1,0xc(%esp)
c0005c3a:	00 
c0005c3b:	8b 45 14             	mov    0x14(%ebp),%eax
c0005c3e:	89 44 24 08          	mov    %eax,0x8(%esp)
c0005c42:	8b 45 e8             	mov    -0x18(%ebp),%eax
c0005c45:	89 44 24 04          	mov    %eax,0x4(%esp)
c0005c49:	8b 45 08             	mov    0x8(%ebp),%eax
c0005c4c:	89 04 24             	mov    %eax,(%esp)
c0005c4f:	e8 6a fd ff ff       	call   c00059be <formatInt>
c0005c54:	01 45 ec             	add    %eax,-0x14(%ebp)
c0005c57:	8b 45 ec             	mov    -0x14(%ebp),%eax
c0005c5a:	e9 0d 01 00 00       	jmp    c0005d6c <formatDouble+0x273>
c0005c5f:	db 45 e8             	fildl  -0x18(%ebp)
c0005c62:	dc 45 f0             	faddl  -0x10(%ebp)
c0005c65:	d9 6d d4             	fldcw  -0x2c(%ebp)
c0005c68:	db 5d e8             	fistpl -0x18(%ebp)
c0005c6b:	d9 6d d6             	fldcw  -0x2a(%ebp)
c0005c6e:	83 7d e8 00          	cmpl   $0x0,-0x18(%ebp)
c0005c72:	75 7a                	jne    c0005cee <formatDouble+0x1f5>
c0005c74:	8b 45 08             	mov    0x8(%ebp),%eax
c0005c77:	c6 00 2e             	movb   $0x2e,(%eax)
c0005c7a:	83 45 08 01          	addl   $0x1,0x8(%ebp)
c0005c7e:	eb 6f                	jmp    c0005cef <formatDouble+0x1f6>
c0005c80:	dd 45 f0             	fldl   -0x10(%ebp)
c0005c83:	dd 05 a0 7b 00 c0    	fldl   0xc0007ba0
c0005c89:	de c9                	fmulp  %st,%st(1)
c0005c8b:	dd 5d f0             	fstpl  -0x10(%ebp)
c0005c8e:	8b 55 08             	mov    0x8(%ebp),%edx
c0005c91:	80 7d dc 00          	cmpb   $0x0,-0x24(%ebp)
c0005c95:	74 18                	je     c0005caf <formatDouble+0x1b6>
c0005c97:	dd 45 f0             	fldl   -0x10(%ebp)
c0005c9a:	d9 6d d4             	fldcw  -0x2c(%ebp)
c0005c9d:	db 5d d0             	fistpl -0x30(%ebp)
c0005ca0:	d9 6d d6             	fldcw  -0x2a(%ebp)
c0005ca3:	8b 45 d0             	mov    -0x30(%ebp),%eax
c0005ca6:	0f b6 80 e0 73 00 c0 	movzbl -0x3fff8c20(%eax),%eax
c0005cad:	eb 16                	jmp    c0005cc5 <formatDouble+0x1cc>
c0005caf:	dd 45 f0             	fldl   -0x10(%ebp)
c0005cb2:	d9 6d d4             	fldcw  -0x2c(%ebp)
c0005cb5:	db 5d d0             	fistpl -0x30(%ebp)
c0005cb8:	d9 6d d6             	fldcw  -0x2a(%ebp)
c0005cbb:	8b 45 d0             	mov    -0x30(%ebp),%eax
c0005cbe:	0f b6 80 a0 73 00 c0 	movzbl -0x3fff8c60(%eax),%eax
c0005cc5:	88 02                	mov    %al,(%edx)
c0005cc7:	83 45 08 01          	addl   $0x1,0x8(%ebp)
c0005ccb:	dd 45 f0             	fldl   -0x10(%ebp)
c0005cce:	d9 6d d4             	fldcw  -0x2c(%ebp)
c0005cd1:	db 5d d0             	fistpl -0x30(%ebp)
c0005cd4:	d9 6d d6             	fldcw  -0x2a(%ebp)
c0005cd7:	8b 45 d0             	mov    -0x30(%ebp),%eax
c0005cda:	89 45 d0             	mov    %eax,-0x30(%ebp)
c0005cdd:	db 45 d0             	fildl  -0x30(%ebp)
c0005ce0:	dd 45 f0             	fldl   -0x10(%ebp)
c0005ce3:	de e1                	fsubp  %st,%st(1)
c0005ce5:	dd 5d f0             	fstpl  -0x10(%ebp)
c0005ce8:	83 45 ec 01          	addl   $0x1,-0x14(%ebp)
c0005cec:	eb 01                	jmp    c0005cef <formatDouble+0x1f6>
c0005cee:	90                   	nop
c0005cef:	dd 45 f0             	fldl   -0x10(%ebp)
c0005cf2:	d9 ee                	fldz   
c0005cf4:	d9 c9                	fxch   %st(1)
c0005cf6:	da e9                	fucompp 
c0005cf8:	df e0                	fnstsw %ax
c0005cfa:	9e                   	sahf   
c0005cfb:	0f 97 c0             	seta   %al
c0005cfe:	84 c0                	test   %al,%al
c0005d00:	0f 85 7a ff ff ff    	jne    c0005c80 <formatDouble+0x187>
c0005d06:	80 7d d8 00          	cmpb   $0x0,-0x28(%ebp)
c0005d0a:	74 5a                	je     c0005d66 <formatDouble+0x26d>
c0005d0c:	8b 55 08             	mov    0x8(%ebp),%edx
c0005d0f:	80 7d dc 00          	cmpb   $0x0,-0x24(%ebp)
c0005d13:	74 07                	je     c0005d1c <formatDouble+0x223>
c0005d15:	b8 45 00 00 00       	mov    $0x45,%eax
c0005d1a:	eb 05                	jmp    c0005d21 <formatDouble+0x228>
c0005d1c:	b8 65 00 00 00       	mov    $0x65,%eax
c0005d21:	88 02                	mov    %al,(%edx)
c0005d23:	83 45 08 01          	addl   $0x1,0x8(%ebp)
c0005d27:	83 7d e8 00          	cmpl   $0x0,-0x18(%ebp)
c0005d2b:	78 0a                	js     c0005d37 <formatDouble+0x23e>
c0005d2d:	8b 45 08             	mov    0x8(%ebp),%eax
c0005d30:	c6 00 2b             	movb   $0x2b,(%eax)
c0005d33:	83 45 08 01          	addl   $0x1,0x8(%ebp)
c0005d37:	0f b6 45 dc          	movzbl -0x24(%ebp),%eax
c0005d3b:	89 44 24 10          	mov    %eax,0x10(%esp)
c0005d3f:	c7 44 24 0c 01 00 00 	movl   $0x1,0xc(%esp)
c0005d46:	00 
c0005d47:	8b 45 14             	mov    0x14(%ebp),%eax
c0005d4a:	89 44 24 08          	mov    %eax,0x8(%esp)
c0005d4e:	8b 45 e8             	mov    -0x18(%ebp),%eax
c0005d51:	89 44 24 04          	mov    %eax,0x4(%esp)
c0005d55:	8b 45 08             	mov    0x8(%ebp),%eax
c0005d58:	89 04 24             	mov    %eax,(%esp)
c0005d5b:	e8 5e fc ff ff       	call   c00059be <formatInt>
c0005d60:	83 c0 01             	add    $0x1,%eax
c0005d63:	01 45 ec             	add    %eax,-0x14(%ebp)
c0005d66:	8b 45 ec             	mov    -0x14(%ebp),%eax
c0005d69:	83 c0 01             	add    $0x1,%eax
c0005d6c:	c9                   	leave  
c0005d6d:	c3                   	ret    

c0005d6e <dtoa>:
c0005d6e:	55                   	push   %ebp
c0005d6f:	89 e5                	mov    %esp,%ebp
c0005d71:	83 ec 48             	sub    $0x48,%esp
c0005d74:	8b 45 08             	mov    0x8(%ebp),%eax
c0005d77:	89 45 e0             	mov    %eax,-0x20(%ebp)
c0005d7a:	8b 45 0c             	mov    0xc(%ebp),%eax
c0005d7d:	89 45 e4             	mov    %eax,-0x1c(%ebp)
c0005d80:	c7 44 24 14 00 00 00 	movl   $0x0,0x14(%esp)
c0005d87:	00 
c0005d88:	c7 44 24 10 00 00 00 	movl   $0x0,0x10(%esp)
c0005d8f:	00 
c0005d90:	8b 45 14             	mov    0x14(%ebp),%eax
c0005d93:	89 44 24 0c          	mov    %eax,0xc(%esp)
c0005d97:	dd 45 e0             	fldl   -0x20(%ebp)
c0005d9a:	dd 5c 24 04          	fstpl  0x4(%esp)
c0005d9e:	8b 45 10             	mov    0x10(%ebp),%eax
c0005da1:	89 04 24             	mov    %eax,(%esp)
c0005da4:	e8 50 fd ff ff       	call   c0005af9 <formatDouble>
c0005da9:	89 45 f4             	mov    %eax,-0xc(%ebp)
c0005dac:	8b 45 f4             	mov    -0xc(%ebp),%eax
c0005daf:	03 45 10             	add    0x10(%ebp),%eax
c0005db2:	c6 00 00             	movb   $0x0,(%eax)
c0005db5:	8b 45 10             	mov    0x10(%ebp),%eax
c0005db8:	c9                   	leave  
c0005db9:	c3                   	ret    

c0005dba <printNum>:
c0005dba:	55                   	push   %ebp
c0005dbb:	89 e5                	mov    %esp,%ebp
c0005dbd:	83 ec 58             	sub    $0x58,%esp
c0005dc0:	8b 55 10             	mov    0x10(%ebp),%edx
c0005dc3:	8b 45 14             	mov    0x14(%ebp),%eax
c0005dc6:	88 55 c4             	mov    %dl,-0x3c(%ebp)
c0005dc9:	88 45 c0             	mov    %al,-0x40(%ebp)
c0005dcc:	c7 44 24 08 20 00 00 	movl   $0x20,0x8(%esp)
c0005dd3:	00 
c0005dd4:	c7 44 24 04 00 00 00 	movl   $0x0,0x4(%esp)
c0005ddb:	00 
c0005ddc:	8d 45 d0             	lea    -0x30(%ebp),%eax
c0005ddf:	89 04 24             	mov    %eax,(%esp)
c0005de2:	e8 37 ed ff ff       	call   c0004b1e <memset>
c0005de7:	c7 45 f0 00 00 00 00 	movl   $0x0,-0x10(%ebp)
c0005dee:	83 7d 0c 24          	cmpl   $0x24,0xc(%ebp)
c0005df2:	0f 87 bf 00 00 00    	ja     c0005eb7 <printNum+0xfd>
c0005df8:	83 7d 0c 01          	cmpl   $0x1,0xc(%ebp)
c0005dfc:	0f 86 b8 00 00 00    	jbe    c0005eba <printNum+0x100>
c0005e02:	83 7d 08 00          	cmpl   $0x0,0x8(%ebp)
c0005e06:	75 0c                	jne    c0005e14 <printNum+0x5a>
c0005e08:	c7 04 24 30 00 00 00 	movl   $0x30,(%esp)
c0005e0f:	e8 24 01 00 00       	call   c0005f38 <putc>
c0005e14:	83 7d 08 00          	cmpl   $0x0,0x8(%ebp)
c0005e18:	79 15                	jns    c0005e2f <printNum+0x75>
c0005e1a:	80 7d c4 00          	cmpb   $0x0,-0x3c(%ebp)
c0005e1e:	74 0f                	je     c0005e2f <printNum+0x75>
c0005e20:	c7 04 24 2d 00 00 00 	movl   $0x2d,(%esp)
c0005e27:	e8 0c 01 00 00       	call   c0005f38 <putc>
c0005e2c:	f7 5d 08             	negl   0x8(%ebp)
c0005e2f:	8b 45 08             	mov    0x8(%ebp),%eax
c0005e32:	89 45 f4             	mov    %eax,-0xc(%ebp)
c0005e35:	eb 50                	jmp    c0005e87 <printNum+0xcd>
c0005e37:	b8 1f 00 00 00       	mov    $0x1f,%eax
c0005e3c:	89 c1                	mov    %eax,%ecx
c0005e3e:	2b 4d f0             	sub    -0x10(%ebp),%ecx
c0005e41:	80 7d c0 00          	cmpb   $0x0,-0x40(%ebp)
c0005e45:	74 16                	je     c0005e5d <printNum+0xa3>
c0005e47:	8b 45 f4             	mov    -0xc(%ebp),%eax
c0005e4a:	ba 00 00 00 00       	mov    $0x0,%edx
c0005e4f:	f7 75 0c             	divl   0xc(%ebp)
c0005e52:	89 d0                	mov    %edx,%eax
c0005e54:	0f b6 80 e0 73 00 c0 	movzbl -0x3fff8c20(%eax),%eax
c0005e5b:	eb 14                	jmp    c0005e71 <printNum+0xb7>
c0005e5d:	8b 45 f4             	mov    -0xc(%ebp),%eax
c0005e60:	ba 00 00 00 00       	mov    $0x0,%edx
c0005e65:	f7 75 0c             	divl   0xc(%ebp)
c0005e68:	89 d0                	mov    %edx,%eax
c0005e6a:	0f b6 80 a0 73 00 c0 	movzbl -0x3fff8c60(%eax),%eax
c0005e71:	88 44 0d d0          	mov    %al,-0x30(%ebp,%ecx,1)
c0005e75:	8b 45 f4             	mov    -0xc(%ebp),%eax
c0005e78:	ba 00 00 00 00       	mov    $0x0,%edx
c0005e7d:	f7 75 0c             	divl   0xc(%ebp)
c0005e80:	89 45 f4             	mov    %eax,-0xc(%ebp)
c0005e83:	83 45 f0 01          	addl   $0x1,-0x10(%ebp)
c0005e87:	83 7d f4 00          	cmpl   $0x0,-0xc(%ebp)
c0005e8b:	75 aa                	jne    c0005e37 <printNum+0x7d>
c0005e8d:	83 6d f0 01          	subl   $0x1,-0x10(%ebp)
c0005e91:	eb 1c                	jmp    c0005eaf <printNum+0xf5>
c0005e93:	b8 1f 00 00 00       	mov    $0x1f,%eax
c0005e98:	2b 45 f0             	sub    -0x10(%ebp),%eax
c0005e9b:	0f b6 44 05 d0       	movzbl -0x30(%ebp,%eax,1),%eax
c0005ea0:	0f b6 c0             	movzbl %al,%eax
c0005ea3:	89 04 24             	mov    %eax,(%esp)
c0005ea6:	e8 8d 00 00 00       	call   c0005f38 <putc>
c0005eab:	83 6d f0 01          	subl   $0x1,-0x10(%ebp)
c0005eaf:	83 7d f0 00          	cmpl   $0x0,-0x10(%ebp)
c0005eb3:	79 de                	jns    c0005e93 <printNum+0xd9>
c0005eb5:	eb 04                	jmp    c0005ebb <printNum+0x101>
c0005eb7:	90                   	nop
c0005eb8:	eb 01                	jmp    c0005ebb <printNum+0x101>
c0005eba:	90                   	nop
c0005ebb:	c9                   	leave  
c0005ebc:	c3                   	ret    

c0005ebd <printDecimalNum>:
c0005ebd:	55                   	push   %ebp
c0005ebe:	89 e5                	mov    %esp,%ebp
c0005ec0:	83 ec 78             	sub    $0x78,%esp
c0005ec3:	8b 45 08             	mov    0x8(%ebp),%eax
c0005ec6:	89 45 a0             	mov    %eax,-0x60(%ebp)
c0005ec9:	8b 45 0c             	mov    0xc(%ebp),%eax
c0005ecc:	89 45 a4             	mov    %eax,-0x5c(%ebp)
c0005ecf:	c7 44 24 08 40 00 00 	movl   $0x40,0x8(%esp)
c0005ed6:	00 
c0005ed7:	c7 44 24 04 00 00 00 	movl   $0x0,0x4(%esp)
c0005ede:	00 
c0005edf:	8d 45 b0             	lea    -0x50(%ebp),%eax
c0005ee2:	89 04 24             	mov    %eax,(%esp)
c0005ee5:	e8 34 ec ff ff       	call   c0004b1e <memset>
c0005eea:	c7 45 f0 00 00 00 00 	movl   $0x0,-0x10(%ebp)
c0005ef1:	8b 45 10             	mov    0x10(%ebp),%eax
c0005ef4:	89 44 24 0c          	mov    %eax,0xc(%esp)
c0005ef8:	8d 45 b0             	lea    -0x50(%ebp),%eax
c0005efb:	89 44 24 08          	mov    %eax,0x8(%esp)
c0005eff:	dd 45 a0             	fldl   -0x60(%ebp)
c0005f02:	dd 1c 24             	fstpl  (%esp)
c0005f05:	e8 64 fe ff ff       	call   c0005d6e <dtoa>
c0005f0a:	89 04 24             	mov    %eax,(%esp)
c0005f0d:	e8 7f ed ff ff       	call   c0004c91 <strlen>
c0005f12:	89 45 f4             	mov    %eax,-0xc(%ebp)
c0005f15:	eb 17                	jmp    c0005f2e <printDecimalNum+0x71>
c0005f17:	8b 45 f0             	mov    -0x10(%ebp),%eax
c0005f1a:	0f b6 44 05 b0       	movzbl -0x50(%ebp,%eax,1),%eax
c0005f1f:	0f b6 c0             	movzbl %al,%eax
c0005f22:	89 04 24             	mov    %eax,(%esp)
c0005f25:	e8 0e 00 00 00       	call   c0005f38 <putc>
c0005f2a:	83 45 f0 01          	addl   $0x1,-0x10(%ebp)
c0005f2e:	8b 45 f0             	mov    -0x10(%ebp),%eax
c0005f31:	3b 45 f4             	cmp    -0xc(%ebp),%eax
c0005f34:	7c e1                	jl     c0005f17 <printDecimalNum+0x5a>
c0005f36:	c9                   	leave  
c0005f37:	c3                   	ret    

c0005f38 <putc>:
c0005f38:	55                   	push   %ebp
c0005f39:	89 e5                	mov    %esp,%ebp
c0005f3b:	83 ec 38             	sub    $0x38,%esp
c0005f3e:	8b 45 08             	mov    0x8(%ebp),%eax
c0005f41:	88 45 e4             	mov    %al,-0x1c(%ebp)
c0005f44:	c6 45 eb 00          	movb   $0x0,-0x15(%ebp)
c0005f48:	80 7d e4 0a          	cmpb   $0xa,-0x1c(%ebp)
c0005f4c:	75 1b                	jne    c0005f69 <putc+0x31>
c0005f4e:	a1 84 73 00 c0       	mov    0xc0007384,%eax
c0005f53:	83 c0 01             	add    $0x1,%eax
c0005f56:	a3 84 73 00 c0       	mov    %eax,0xc0007384
c0005f5b:	c7 05 80 73 00 c0 00 	movl   $0x0,0xc0007380
c0005f62:	00 00 00 
c0005f65:	c6 45 eb 01          	movb   $0x1,-0x15(%ebp)
c0005f69:	80 7d e4 09          	cmpb   $0x9,-0x1c(%ebp)
c0005f6d:	75 5a                	jne    c0005fc9 <putc+0x91>
c0005f6f:	a1 80 73 00 c0       	mov    0xc0007380,%eax
c0005f74:	8b 0d 88 73 00 c0    	mov    0xc0007388,%ecx
c0005f7a:	89 c2                	mov    %eax,%edx
c0005f7c:	c1 fa 1f             	sar    $0x1f,%edx
c0005f7f:	f7 f9                	idiv   %ecx
c0005f81:	89 d0                	mov    %edx,%eax
c0005f83:	85 c0                	test   %eax,%eax
c0005f85:	75 0c                	jne    c0005f93 <putc+0x5b>
c0005f87:	c7 04 24 20 00 00 00 	movl   $0x20,(%esp)
c0005f8e:	e8 a5 ff ff ff       	call   c0005f38 <putc>
c0005f93:	c7 45 ec 00 00 00 00 	movl   $0x0,-0x14(%ebp)
c0005f9a:	eb 10                	jmp    c0005fac <putc+0x74>
c0005f9c:	c7 04 24 20 00 00 00 	movl   $0x20,(%esp)
c0005fa3:	e8 90 ff ff ff       	call   c0005f38 <putc>
c0005fa8:	83 45 ec 01          	addl   $0x1,-0x14(%ebp)
c0005fac:	a1 80 73 00 c0       	mov    0xc0007380,%eax
c0005fb1:	8b 0d 88 73 00 c0    	mov    0xc0007388,%ecx
c0005fb7:	89 c2                	mov    %eax,%edx
c0005fb9:	c1 fa 1f             	sar    $0x1f,%edx
c0005fbc:	f7 f9                	idiv   %ecx
c0005fbe:	89 d0                	mov    %edx,%eax
c0005fc0:	3b 45 ec             	cmp    -0x14(%ebp),%eax
c0005fc3:	7f d7                	jg     c0005f9c <putc+0x64>
c0005fc5:	c6 45 eb 01          	movb   $0x1,-0x15(%ebp)
c0005fc9:	a1 80 73 00 c0       	mov    0xc0007380,%eax
c0005fce:	83 c0 01             	add    $0x1,%eax
c0005fd1:	83 f8 50             	cmp    $0x50,%eax
c0005fd4:	7e 3a                	jle    c0006010 <putc+0xd8>
c0005fd6:	8b 0d 80 73 00 c0    	mov    0xc0007380,%ecx
c0005fdc:	ba 67 66 66 66       	mov    $0x66666667,%edx
c0005fe1:	89 c8                	mov    %ecx,%eax
c0005fe3:	f7 ea                	imul   %edx
c0005fe5:	c1 fa 05             	sar    $0x5,%edx
c0005fe8:	89 c8                	mov    %ecx,%eax
c0005fea:	c1 f8 1f             	sar    $0x1f,%eax
c0005fed:	29 c2                	sub    %eax,%edx
c0005fef:	89 d0                	mov    %edx,%eax
c0005ff1:	c1 e0 02             	shl    $0x2,%eax
c0005ff4:	01 d0                	add    %edx,%eax
c0005ff6:	c1 e0 04             	shl    $0x4,%eax
c0005ff9:	89 ca                	mov    %ecx,%edx
c0005ffb:	29 c2                	sub    %eax,%edx
c0005ffd:	89 15 80 73 00 c0    	mov    %edx,0xc0007380
c0006003:	a1 84 73 00 c0       	mov    0xc0007384,%eax
c0006008:	83 c0 01             	add    $0x1,%eax
c000600b:	a3 84 73 00 c0       	mov    %eax,0xc0007384
c0006010:	a1 84 73 00 c0       	mov    0xc0007384,%eax
c0006015:	83 f8 18             	cmp    $0x18,%eax
c0006018:	7e 3d                	jle    c0006057 <putc+0x11f>
c000601a:	8b 0d 84 73 00 c0    	mov    0xc0007384,%ecx
c0006020:	ba 1f 85 eb 51       	mov    $0x51eb851f,%edx
c0006025:	89 c8                	mov    %ecx,%eax
c0006027:	f7 ea                	imul   %edx
c0006029:	c1 fa 03             	sar    $0x3,%edx
c000602c:	89 c8                	mov    %ecx,%eax
c000602e:	c1 f8 1f             	sar    $0x1f,%eax
c0006031:	29 c2                	sub    %eax,%edx
c0006033:	89 d0                	mov    %edx,%eax
c0006035:	c1 e0 02             	shl    $0x2,%eax
c0006038:	01 d0                	add    %edx,%eax
c000603a:	8d 14 85 00 00 00 00 	lea    0x0(,%eax,4),%edx
c0006041:	01 d0                	add    %edx,%eax
c0006043:	89 ca                	mov    %ecx,%edx
c0006045:	29 c2                	sub    %eax,%edx
c0006047:	89 d0                	mov    %edx,%eax
c0006049:	83 c0 01             	add    $0x1,%eax
c000604c:	0f b6 c0             	movzbl %al,%eax
c000604f:	89 04 24             	mov    %eax,(%esp)
c0006052:	e8 99 f5 ff ff       	call   c00055f0 <scroll>
c0006057:	80 7d eb 00          	cmpb   $0x0,-0x15(%ebp)
c000605b:	75 53                	jne    c00060b0 <putc+0x178>
c000605d:	a1 80 73 00 c0       	mov    0xc0007380,%eax
c0006062:	83 c0 01             	add    $0x1,%eax
c0006065:	a3 80 73 00 c0       	mov    %eax,0xc0007380
c000606a:	c7 45 f0 00 80 0b 00 	movl   $0xb8000,-0x10(%ebp)
c0006071:	0f b6 05 8c 73 00 c0 	movzbl 0xc000738c,%eax
c0006078:	66 98                	cbtw   
c000607a:	89 c2                	mov    %eax,%edx
c000607c:	c1 e2 08             	shl    $0x8,%edx
c000607f:	0f b6 45 e4          	movzbl -0x1c(%ebp),%eax
c0006083:	09 d0                	or     %edx,%eax
c0006085:	66 89 45 f6          	mov    %ax,-0xa(%ebp)
c0006089:	a1 80 73 00 c0       	mov    0xc0007380,%eax
c000608e:	8d 48 ff             	lea    -0x1(%eax),%ecx
c0006091:	8b 15 84 73 00 c0    	mov    0xc0007384,%edx
c0006097:	89 d0                	mov    %edx,%eax
c0006099:	c1 e0 02             	shl    $0x2,%eax
c000609c:	01 d0                	add    %edx,%eax
c000609e:	c1 e0 04             	shl    $0x4,%eax
c00060a1:	8d 04 01             	lea    (%ecx,%eax,1),%eax
c00060a4:	01 c0                	add    %eax,%eax
c00060a6:	03 45 f0             	add    -0x10(%ebp),%eax
c00060a9:	0f b7 55 f6          	movzwl -0xa(%ebp),%edx
c00060ad:	66 89 10             	mov    %dx,(%eax)
c00060b0:	8b 15 84 73 00 c0    	mov    0xc0007384,%edx
c00060b6:	a1 80 73 00 c0       	mov    0xc0007380,%eax
c00060bb:	89 54 24 04          	mov    %edx,0x4(%esp)
c00060bf:	89 04 24             	mov    %eax,(%esp)
c00060c2:	e8 02 00 00 00       	call   c00060c9 <reloc>
c00060c7:	c9                   	leave  
c00060c8:	c3                   	ret    

c00060c9 <reloc>:
c00060c9:	55                   	push   %ebp
c00060ca:	89 e5                	mov    %esp,%ebp
c00060cc:	83 ec 28             	sub    $0x28,%esp
c00060cf:	8b 45 0c             	mov    0xc(%ebp),%eax
c00060d2:	89 c2                	mov    %eax,%edx
c00060d4:	89 d0                	mov    %edx,%eax
c00060d6:	c1 e0 02             	shl    $0x2,%eax
c00060d9:	01 d0                	add    %edx,%eax
c00060db:	c1 e0 04             	shl    $0x4,%eax
c00060de:	89 c2                	mov    %eax,%edx
c00060e0:	8b 45 08             	mov    0x8(%ebp),%eax
c00060e3:	8d 04 02             	lea    (%edx,%eax,1),%eax
c00060e6:	66 89 45 f6          	mov    %ax,-0xa(%ebp)
c00060ea:	c7 44 24 04 0e 00 00 	movl   $0xe,0x4(%esp)
c00060f1:	00 
c00060f2:	c7 04 24 d4 03 00 00 	movl   $0x3d4,(%esp)
c00060f9:	e8 32 b0 ff ff       	call   c0001130 <outb>
c00060fe:	0f b7 45 f6          	movzwl -0xa(%ebp),%eax
c0006102:	66 c1 e8 08          	shr    $0x8,%ax
c0006106:	0f b6 c0             	movzbl %al,%eax
c0006109:	89 44 24 04          	mov    %eax,0x4(%esp)
c000610d:	c7 04 24 d5 03 00 00 	movl   $0x3d5,(%esp)
c0006114:	e8 17 b0 ff ff       	call   c0001130 <outb>
c0006119:	c7 44 24 04 0f 00 00 	movl   $0xf,0x4(%esp)
c0006120:	00 
c0006121:	c7 04 24 d4 03 00 00 	movl   $0x3d4,(%esp)
c0006128:	e8 03 b0 ff ff       	call   c0001130 <outb>
c000612d:	0f b7 45 f6          	movzwl -0xa(%ebp),%eax
c0006131:	0f b6 c0             	movzbl %al,%eax
c0006134:	89 44 24 04          	mov    %eax,0x4(%esp)
c0006138:	c7 04 24 d5 03 00 00 	movl   $0x3d5,(%esp)
c000613f:	e8 ec af ff ff       	call   c0001130 <outb>
c0006144:	b8 00 00 00 00       	mov    $0x0,%eax
c0006149:	c9                   	leave  
c000614a:	c3                   	ret    
	...

c000614c <fsInit>:
c000614c:	55                   	push   %ebp
c000614d:	89 e5                	mov    %esp,%ebp
c000614f:	53                   	push   %ebx
c0006150:	83 ec 24             	sub    $0x24,%esp
c0006153:	83 7d 08 00          	cmpl   $0x0,0x8(%ebp)
c0006157:	0f 85 a8 01 00 00    	jne    c0006305 <fsInit+0x1b9>
c000615d:	b8 b4 7b 00 c0       	mov    $0xc0007bb4,%eax
c0006162:	89 04 24             	mov    %eax,(%esp)
c0006165:	e8 9e f5 ff ff       	call   c0005708 <printf>
c000616a:	c7 44 24 04 00 00 00 	movl   $0x0,0x4(%esp)
c0006171:	00 
c0006172:	c7 04 24 24 00 00 00 	movl   $0x24,(%esp)
c0006179:	e8 62 e0 ff ff       	call   c00041e0 <alloc>
c000617e:	a3 1c 80 00 c0       	mov    %eax,0xc000801c
c0006183:	a1 1c 80 00 c0       	mov    0xc000801c,%eax
c0006188:	85 c0                	test   %eax,%eax
c000618a:	0f 84 83 01 00 00    	je     c0006313 <fsInit+0x1c7>
c0006190:	a1 1c 80 00 c0       	mov    0xc000801c,%eax
c0006195:	c7 40 14 02 00 00 00 	movl   $0x2,0x14(%eax)
c000619c:	a1 1c 80 00 c0       	mov    0xc000801c,%eax
c00061a1:	c7 40 18 00 00 00 00 	movl   $0x0,0x18(%eax)
c00061a8:	a1 1c 80 00 c0       	mov    0xc000801c,%eax
c00061ad:	66 c7 00 ed 03       	movw   $0x3ed,(%eax)
c00061b2:	a1 1c 80 00 c0       	mov    0xc000801c,%eax
c00061b7:	c7 40 04 00 00 00 00 	movl   $0x0,0x4(%eax)
c00061be:	a1 1c 80 00 c0       	mov    0xc000801c,%eax
c00061c3:	c7 40 08 00 00 00 00 	movl   $0x0,0x8(%eax)
c00061ca:	8b 1d 1c 80 00 c0    	mov    0xc000801c,%ebx
c00061d0:	c7 44 24 04 00 00 00 	movl   $0x0,0x4(%esp)
c00061d7:	00 
c00061d8:	c7 04 24 20 00 00 00 	movl   $0x20,(%esp)
c00061df:	e8 fc df ff ff       	call   c00041e0 <alloc>
c00061e4:	89 43 1c             	mov    %eax,0x1c(%ebx)
c00061e7:	a1 1c 80 00 c0       	mov    0xc000801c,%eax
c00061ec:	8b 40 1c             	mov    0x1c(%eax),%eax
c00061ef:	85 c0                	test   %eax,%eax
c00061f1:	0f 84 1f 01 00 00    	je     c0006316 <fsInit+0x1ca>
c00061f7:	a1 1c 80 00 c0       	mov    0xc000801c,%eax
c00061fc:	8b 40 1c             	mov    0x1c(%eax),%eax
c00061ff:	c7 00 00 00 00 00    	movl   $0x0,(%eax)
c0006205:	a1 1c 80 00 c0       	mov    0xc000801c,%eax
c000620a:	8b 40 1c             	mov    0x1c(%eax),%eax
c000620d:	c7 40 04 00 00 00 00 	movl   $0x0,0x4(%eax)
c0006214:	a1 1c 80 00 c0       	mov    0xc000801c,%eax
c0006219:	8b 40 1c             	mov    0x1c(%eax),%eax
c000621c:	c7 40 08 00 00 00 00 	movl   $0x0,0x8(%eax)
c0006223:	a1 1c 80 00 c0       	mov    0xc000801c,%eax
c0006228:	8b 40 1c             	mov    0x1c(%eax),%eax
c000622b:	c7 40 0c 00 00 00 00 	movl   $0x0,0xc(%eax)
c0006232:	a1 1c 80 00 c0       	mov    0xc000801c,%eax
c0006237:	8b 40 1c             	mov    0x1c(%eax),%eax
c000623a:	c6 40 1c 01          	movb   $0x1,0x1c(%eax)
c000623e:	a1 1c 80 00 c0       	mov    0xc000801c,%eax
c0006243:	8b 40 1c             	mov    0x1c(%eax),%eax
c0006246:	c6 40 1d 00          	movb   $0x0,0x1d(%eax)
c000624a:	a1 1c 80 00 c0       	mov    0xc000801c,%eax
c000624f:	8b 40 1c             	mov    0x1c(%eax),%eax
c0006252:	8b 15 1c 80 00 c0    	mov    0xc000801c,%edx
c0006258:	83 c2 18             	add    $0x18,%edx
c000625b:	89 50 10             	mov    %edx,0x10(%eax)
c000625e:	a1 1c 80 00 c0       	mov    0xc000801c,%eax
c0006263:	8b 50 18             	mov    0x18(%eax),%edx
c0006266:	b8 d9 7b 00 c0       	mov    $0xc0007bd9,%eax
c000626b:	89 54 24 04          	mov    %edx,0x4(%esp)
c000626f:	89 04 24             	mov    %eax,(%esp)
c0006272:	e8 91 f4 ff ff       	call   c0005708 <printf>
c0006277:	a1 1c 80 00 c0       	mov    0xc000801c,%eax
c000627c:	c7 44 24 10 00 00 00 	movl   $0x0,0x10(%esp)
c0006283:	00 
c0006284:	c7 44 24 0c 00 00 00 	movl   $0x0,0xc(%esp)
c000628b:	00 
c000628c:	c7 44 24 08 ed 01 00 	movl   $0x1ed,0x8(%esp)
c0006293:	00 
c0006294:	89 44 24 04          	mov    %eax,0x4(%esp)
c0006298:	c7 04 24 a8 7b 00 c0 	movl   $0xc0007ba8,(%esp)
c000629f:	e8 85 00 00 00       	call   c0006329 <mkdir>
c00062a4:	a1 1c 80 00 c0       	mov    0xc000801c,%eax
c00062a9:	8b 50 18             	mov    0x18(%eax),%edx
c00062ac:	b8 d9 7b 00 c0       	mov    $0xc0007bd9,%eax
c00062b1:	89 54 24 04          	mov    %edx,0x4(%esp)
c00062b5:	89 04 24             	mov    %eax,(%esp)
c00062b8:	e8 4b f4 ff ff       	call   c0005708 <printf>
c00062bd:	a1 1c 80 00 c0       	mov    0xc000801c,%eax
c00062c2:	c7 44 24 10 00 00 00 	movl   $0x0,0x10(%esp)
c00062c9:	00 
c00062ca:	c7 44 24 0c 00 00 00 	movl   $0x0,0xc(%esp)
c00062d1:	00 
c00062d2:	c7 44 24 08 ed 01 00 	movl   $0x1ed,0x8(%esp)
c00062d9:	00 
c00062da:	89 44 24 04          	mov    %eax,0x4(%esp)
c00062de:	c7 04 24 ad 7b 00 c0 	movl   $0xc0007bad,(%esp)
c00062e5:	e8 3f 00 00 00       	call   c0006329 <mkdir>
c00062ea:	a1 1c 80 00 c0       	mov    0xc000801c,%eax
c00062ef:	8b 50 18             	mov    0x18(%eax),%edx
c00062f2:	b8 d9 7b 00 c0       	mov    $0xc0007bd9,%eax
c00062f7:	89 54 24 04          	mov    %edx,0x4(%esp)
c00062fb:	89 04 24             	mov    %eax,(%esp)
c00062fe:	e8 05 f4 ff ff       	call   c0005708 <printf>
c0006303:	eb 1e                	jmp    c0006323 <fsInit+0x1d7>
c0006305:	c7 04 24 e8 7b 00 c0 	movl   $0xc0007be8,(%esp)
c000630c:	e8 a7 f2 ff ff       	call   c00055b8 <panic>
c0006311:	eb 10                	jmp    c0006323 <fsInit+0x1d7>
c0006313:	90                   	nop
c0006314:	eb 01                	jmp    c0006317 <fsInit+0x1cb>
c0006316:	90                   	nop
c0006317:	c7 04 24 08 7c 00 c0 	movl   $0xc0007c08,(%esp)
c000631e:	e8 95 f2 ff ff       	call   c00055b8 <panic>
c0006323:	83 c4 24             	add    $0x24,%esp
c0006326:	5b                   	pop    %ebx
c0006327:	5d                   	pop    %ebp
c0006328:	c3                   	ret    

c0006329 <mkdir>:
c0006329:	55                   	push   %ebp
c000632a:	89 e5                	mov    %esp,%ebp
c000632c:	53                   	push   %ebx
c000632d:	83 ec 34             	sub    $0x34,%esp
c0006330:	c7 44 24 04 00 00 00 	movl   $0x0,0x4(%esp)
c0006337:	00 
c0006338:	c7 04 24 14 00 00 00 	movl   $0x14,(%esp)
c000633f:	e8 9c de ff ff       	call   c00041e0 <alloc>
c0006344:	89 45 ec             	mov    %eax,-0x14(%ebp)
c0006347:	c7 44 24 04 00 00 00 	movl   $0x0,0x4(%esp)
c000634e:	00 
c000634f:	c7 04 24 24 00 00 00 	movl   $0x24,(%esp)
c0006356:	e8 85 de ff ff       	call   c00041e0 <alloc>
c000635b:	89 45 f0             	mov    %eax,-0x10(%ebp)
c000635e:	8b 45 08             	mov    0x8(%ebp),%eax
c0006361:	89 04 24             	mov    %eax,(%esp)
c0006364:	e8 28 e9 ff ff       	call   c0004c91 <strlen>
c0006369:	83 c0 01             	add    $0x1,%eax
c000636c:	c7 44 24 04 00 00 00 	movl   $0x0,0x4(%esp)
c0006373:	00 
c0006374:	89 04 24             	mov    %eax,(%esp)
c0006377:	e8 64 de ff ff       	call   c00041e0 <alloc>
c000637c:	89 45 f4             	mov    %eax,-0xc(%ebp)
c000637f:	8b 45 08             	mov    0x8(%ebp),%eax
c0006382:	89 04 24             	mov    %eax,(%esp)
c0006385:	e8 07 e9 ff ff       	call   c0004c91 <strlen>
c000638a:	83 c0 01             	add    $0x1,%eax
c000638d:	89 44 24 08          	mov    %eax,0x8(%esp)
c0006391:	8b 45 08             	mov    0x8(%ebp),%eax
c0006394:	89 44 24 04          	mov    %eax,0x4(%esp)
c0006398:	8b 45 f4             	mov    -0xc(%ebp),%eax
c000639b:	89 04 24             	mov    %eax,(%esp)
c000639e:	e8 06 e8 ff ff       	call   c0004ba9 <memcpy>
c00063a3:	83 7d f0 00          	cmpl   $0x0,-0x10(%ebp)
c00063a7:	74 54                	je     c00063fd <mkdir+0xd4>
c00063a9:	83 7d f4 00          	cmpl   $0x0,-0xc(%ebp)
c00063ad:	74 4e                	je     c00063fd <mkdir+0xd4>
c00063af:	8b 45 0c             	mov    0xc(%ebp),%eax
c00063b2:	8b 58 10             	mov    0x10(%eax),%ebx
c00063b5:	8b 45 08             	mov    0x8(%ebp),%eax
c00063b8:	89 04 24             	mov    %eax,(%esp)
c00063bb:	e8 d1 e8 ff ff       	call   c0004c91 <strlen>
c00063c0:	89 5d d8             	mov    %ebx,-0x28(%ebp)
c00063c3:	c7 45 dc 00 00 00 00 	movl   $0x0,-0x24(%ebp)
c00063ca:	8b 55 f0             	mov    -0x10(%ebp),%edx
c00063cd:	89 55 e0             	mov    %edx,-0x20(%ebp)
c00063d0:	89 45 e4             	mov    %eax,-0x1c(%ebp)
c00063d3:	8b 45 f4             	mov    -0xc(%ebp),%eax
c00063d6:	89 45 e8             	mov    %eax,-0x18(%ebp)
c00063d9:	8b 45 0c             	mov    0xc(%ebp),%eax
c00063dc:	8b 40 1c             	mov    0x1c(%eax),%eax
c00063df:	c7 44 24 08 14 00 00 	movl   $0x14,0x8(%esp)
c00063e6:	00 
c00063e7:	8d 55 d8             	lea    -0x28(%ebp),%edx
c00063ea:	89 54 24 04          	mov    %edx,0x4(%esp)
c00063ee:	89 04 24             	mov    %eax,(%esp)
c00063f1:	e8 1e 00 00 00       	call   c0006414 <write>
c00063f6:	b8 00 00 00 00       	mov    $0x0,%eax
c00063fb:	eb 11                	jmp    c000640e <mkdir+0xe5>
c00063fd:	c7 04 24 25 7c 00 c0 	movl   $0xc0007c25,(%esp)
c0006404:	e8 af f1 ff ff       	call   c00055b8 <panic>
c0006409:	b8 ff ff ff ff       	mov    $0xffffffff,%eax
c000640e:	83 c4 34             	add    $0x34,%esp
c0006411:	5b                   	pop    %ebx
c0006412:	5d                   	pop    %ebp
c0006413:	c3                   	ret    

c0006414 <write>:
c0006414:	55                   	push   %ebp
c0006415:	89 e5                	mov    %esp,%ebp
c0006417:	83 ec 28             	sub    $0x28,%esp
c000641a:	8b 45 08             	mov    0x8(%ebp),%eax
c000641d:	0f b6 40 1c          	movzbl 0x1c(%eax),%eax
c0006421:	84 c0                	test   %al,%al
c0006423:	75 0c                	jne    c0006431 <write+0x1d>
c0006425:	c7 04 24 40 7c 00 c0 	movl   $0xc0007c40,(%esp)
c000642c:	e8 87 f1 ff ff       	call   c00055b8 <panic>
c0006431:	8b 45 08             	mov    0x8(%ebp),%eax
c0006434:	8b 00                	mov    (%eax),%eax
c0006436:	85 c0                	test   %eax,%eax
c0006438:	75 6f                	jne    c00064a9 <write+0x95>
c000643a:	8b 45 08             	mov    0x8(%ebp),%eax
c000643d:	0f b6 40 1d          	movzbl 0x1d(%eax),%eax
c0006441:	84 c0                	test   %al,%al
c0006443:	74 0c                	je     c0006451 <write+0x3d>
c0006445:	c7 04 24 64 7c 00 c0 	movl   $0xc0007c64,(%esp)
c000644c:	e8 67 f1 ff ff       	call   c00055b8 <panic>
c0006451:	c7 44 24 04 00 00 00 	movl   $0x0,0x4(%esp)
c0006458:	00 
c0006459:	8b 45 10             	mov    0x10(%ebp),%eax
c000645c:	89 04 24             	mov    %eax,(%esp)
c000645f:	e8 7c dd ff ff       	call   c00041e0 <alloc>
c0006464:	89 c2                	mov    %eax,%edx
c0006466:	8b 45 08             	mov    0x8(%ebp),%eax
c0006469:	89 10                	mov    %edx,(%eax)
c000646b:	8b 45 08             	mov    0x8(%ebp),%eax
c000646e:	8b 00                	mov    (%eax),%eax
c0006470:	85 c0                	test   %eax,%eax
c0006472:	0f 84 80 01 00 00    	je     c00065f8 <write+0x1e4>
c0006478:	8b 45 08             	mov    0x8(%ebp),%eax
c000647b:	8b 00                	mov    (%eax),%eax
c000647d:	03 45 10             	add    0x10(%ebp),%eax
c0006480:	89 c2                	mov    %eax,%edx
c0006482:	8b 45 08             	mov    0x8(%ebp),%eax
c0006485:	89 50 04             	mov    %edx,0x4(%eax)
c0006488:	8b 45 08             	mov    0x8(%ebp),%eax
c000648b:	8b 10                	mov    (%eax),%edx
c000648d:	8b 45 08             	mov    0x8(%ebp),%eax
c0006490:	89 50 08             	mov    %edx,0x8(%eax)
c0006493:	8b 45 08             	mov    0x8(%ebp),%eax
c0006496:	8b 10                	mov    (%eax),%edx
c0006498:	8b 45 08             	mov    0x8(%ebp),%eax
c000649b:	89 50 0c             	mov    %edx,0xc(%eax)
c000649e:	8b 45 08             	mov    0x8(%ebp),%eax
c00064a1:	8b 40 10             	mov    0x10(%eax),%eax
c00064a4:	8b 55 10             	mov    0x10(%ebp),%edx
c00064a7:	89 10                	mov    %edx,(%eax)
c00064a9:	8b 45 08             	mov    0x8(%ebp),%eax
c00064ac:	8b 40 08             	mov    0x8(%eax),%eax
c00064af:	89 c2                	mov    %eax,%edx
c00064b1:	8b 45 08             	mov    0x8(%ebp),%eax
c00064b4:	8b 00                	mov    (%eax),%eax
c00064b6:	89 d1                	mov    %edx,%ecx
c00064b8:	29 c1                	sub    %eax,%ecx
c00064ba:	89 c8                	mov    %ecx,%eax
c00064bc:	89 45 e8             	mov    %eax,-0x18(%ebp)
c00064bf:	8b 45 08             	mov    0x8(%ebp),%eax
c00064c2:	8b 40 0c             	mov    0xc(%eax),%eax
c00064c5:	89 c2                	mov    %eax,%edx
c00064c7:	8b 45 08             	mov    0x8(%ebp),%eax
c00064ca:	8b 00                	mov    (%eax),%eax
c00064cc:	89 d1                	mov    %edx,%ecx
c00064ce:	29 c1                	sub    %eax,%ecx
c00064d0:	89 c8                	mov    %ecx,%eax
c00064d2:	89 45 ec             	mov    %eax,-0x14(%ebp)
c00064d5:	8b 45 08             	mov    0x8(%ebp),%eax
c00064d8:	8b 40 10             	mov    0x10(%eax),%eax
c00064db:	8b 10                	mov    (%eax),%edx
c00064dd:	b8 80 7c 00 c0       	mov    $0xc0007c80,%eax
c00064e2:	89 54 24 04          	mov    %edx,0x4(%esp)
c00064e6:	89 04 24             	mov    %eax,(%esp)
c00064e9:	e8 1a f2 ff ff       	call   c0005708 <printf>
c00064ee:	8b 45 08             	mov    0x8(%ebp),%eax
c00064f1:	8b 40 0c             	mov    0xc(%eax),%eax
c00064f4:	89 c2                	mov    %eax,%edx
c00064f6:	8b 45 08             	mov    0x8(%ebp),%eax
c00064f9:	8b 40 04             	mov    0x4(%eax),%eax
c00064fc:	89 d1                	mov    %edx,%ecx
c00064fe:	29 c1                	sub    %eax,%ecx
c0006500:	89 c8                	mov    %ecx,%eax
c0006502:	03 45 10             	add    0x10(%ebp),%eax
c0006505:	89 45 f0             	mov    %eax,-0x10(%ebp)
c0006508:	b8 8c 7c 00 c0       	mov    $0xc0007c8c,%eax
c000650d:	8b 55 f0             	mov    -0x10(%ebp),%edx
c0006510:	89 54 24 04          	mov    %edx,0x4(%esp)
c0006514:	89 04 24             	mov    %eax,(%esp)
c0006517:	e8 ec f1 ff ff       	call   c0005708 <printf>
c000651c:	8b 45 f0             	mov    -0x10(%ebp),%eax
c000651f:	c1 f8 1f             	sar    $0x1f,%eax
c0006522:	f7 d0                	not    %eax
c0006524:	23 45 f0             	and    -0x10(%ebp),%eax
c0006527:	89 45 f0             	mov    %eax,-0x10(%ebp)
c000652a:	8b 45 08             	mov    0x8(%ebp),%eax
c000652d:	8b 40 10             	mov    0x10(%eax),%eax
c0006530:	8b 55 08             	mov    0x8(%ebp),%edx
c0006533:	8b 52 10             	mov    0x10(%edx),%edx
c0006536:	8b 0a                	mov    (%edx),%ecx
c0006538:	8b 55 f0             	mov    -0x10(%ebp),%edx
c000653b:	8d 14 11             	lea    (%ecx,%edx,1),%edx
c000653e:	89 10                	mov    %edx,(%eax)
c0006540:	8b 45 08             	mov    0x8(%ebp),%eax
c0006543:	8b 40 10             	mov    0x10(%eax),%eax
c0006546:	8b 10                	mov    (%eax),%edx
c0006548:	b8 80 7c 00 c0       	mov    $0xc0007c80,%eax
c000654d:	89 54 24 04          	mov    %edx,0x4(%esp)
c0006551:	89 04 24             	mov    %eax,(%esp)
c0006554:	e8 af f1 ff ff       	call   c0005708 <printf>
c0006559:	8b 45 08             	mov    0x8(%ebp),%eax
c000655c:	8b 40 10             	mov    0x10(%eax),%eax
c000655f:	8b 10                	mov    (%eax),%edx
c0006561:	8b 45 08             	mov    0x8(%ebp),%eax
c0006564:	8b 00                	mov    (%eax),%eax
c0006566:	89 54 24 04          	mov    %edx,0x4(%esp)
c000656a:	89 04 24             	mov    %eax,(%esp)
c000656d:	e8 ce db ff ff       	call   c0004140 <realloc>
c0006572:	89 c2                	mov    %eax,%edx
c0006574:	8b 45 08             	mov    0x8(%ebp),%eax
c0006577:	89 10                	mov    %edx,(%eax)
c0006579:	8b 45 08             	mov    0x8(%ebp),%eax
c000657c:	8b 00                	mov    (%eax),%eax
c000657e:	85 c0                	test   %eax,%eax
c0006580:	74 79                	je     c00065fb <write+0x1e7>
c0006582:	8b 45 08             	mov    0x8(%ebp),%eax
c0006585:	8b 00                	mov    (%eax),%eax
c0006587:	89 c2                	mov    %eax,%edx
c0006589:	8b 45 08             	mov    0x8(%ebp),%eax
c000658c:	8b 40 10             	mov    0x10(%eax),%eax
c000658f:	8b 00                	mov    (%eax),%eax
c0006591:	8d 04 02             	lea    (%edx,%eax,1),%eax
c0006594:	89 c2                	mov    %eax,%edx
c0006596:	8b 45 08             	mov    0x8(%ebp),%eax
c0006599:	89 50 04             	mov    %edx,0x4(%eax)
c000659c:	8b 45 08             	mov    0x8(%ebp),%eax
c000659f:	8b 00                	mov    (%eax),%eax
c00065a1:	03 45 e8             	add    -0x18(%ebp),%eax
c00065a4:	89 c2                	mov    %eax,%edx
c00065a6:	8b 45 08             	mov    0x8(%ebp),%eax
c00065a9:	89 50 08             	mov    %edx,0x8(%eax)
c00065ac:	8b 45 08             	mov    0x8(%ebp),%eax
c00065af:	8b 00                	mov    (%eax),%eax
c00065b1:	03 45 ec             	add    -0x14(%ebp),%eax
c00065b4:	89 c2                	mov    %eax,%edx
c00065b6:	8b 45 08             	mov    0x8(%ebp),%eax
c00065b9:	89 50 0c             	mov    %edx,0xc(%eax)
c00065bc:	c7 45 f4 00 00 00 00 	movl   $0x0,-0xc(%ebp)
c00065c3:	eb 24                	jmp    c00065e9 <write+0x1d5>
c00065c5:	8b 45 08             	mov    0x8(%ebp),%eax
c00065c8:	8b 40 0c             	mov    0xc(%eax),%eax
c00065cb:	8b 55 0c             	mov    0xc(%ebp),%edx
c00065ce:	03 55 f4             	add    -0xc(%ebp),%edx
c00065d1:	0f b6 12             	movzbl (%edx),%edx
c00065d4:	88 10                	mov    %dl,(%eax)
c00065d6:	8b 45 08             	mov    0x8(%ebp),%eax
c00065d9:	8b 40 0c             	mov    0xc(%eax),%eax
c00065dc:	8d 50 01             	lea    0x1(%eax),%edx
c00065df:	8b 45 08             	mov    0x8(%ebp),%eax
c00065e2:	89 50 0c             	mov    %edx,0xc(%eax)
c00065e5:	83 45 f4 01          	addl   $0x1,-0xc(%ebp)
c00065e9:	8b 45 f4             	mov    -0xc(%ebp),%eax
c00065ec:	3b 45 10             	cmp    0x10(%ebp),%eax
c00065ef:	72 d4                	jb     c00065c5 <write+0x1b1>
c00065f1:	b8 00 00 00 00       	mov    $0x0,%eax
c00065f6:	eb 15                	jmp    c000660d <write+0x1f9>
c00065f8:	90                   	nop
c00065f9:	eb 01                	jmp    c00065fc <write+0x1e8>
c00065fb:	90                   	nop
c00065fc:	c7 04 24 25 7c 00 c0 	movl   $0xc0007c25,(%esp)
c0006603:	e8 b0 ef ff ff       	call   c00055b8 <panic>
c0006608:	b8 ff ff ff ff       	mov    $0xffffffff,%eax
c000660d:	c9                   	leave  
c000660e:	c3                   	ret    

c000660f <read>:
c000660f:	55                   	push   %ebp
c0006610:	89 e5                	mov    %esp,%ebp
c0006612:	8b 45 08             	mov    0x8(%ebp),%eax
c0006615:	8b 50 08             	mov    0x8(%eax),%edx
c0006618:	8b 45 08             	mov    0x8(%ebp),%eax
c000661b:	8b 40 04             	mov    0x4(%eax),%eax
c000661e:	39 c2                	cmp    %eax,%edx
c0006620:	77 10                	ja     c0006632 <read+0x23>
c0006622:	8b 45 08             	mov    0x8(%ebp),%eax
c0006625:	8b 50 08             	mov    0x8(%eax),%edx
c0006628:	8b 45 08             	mov    0x8(%ebp),%eax
c000662b:	8b 40 0c             	mov    0xc(%eax),%eax
c000662e:	39 c2                	cmp    %eax,%edx
c0006630:	76 07                	jbe    c0006639 <read+0x2a>
c0006632:	b8 ff ff ff ff       	mov    $0xffffffff,%eax
c0006637:	eb 05                	jmp    c000663e <read+0x2f>
c0006639:	b8 ff ff ff ff       	mov    $0xffffffff,%eax
c000663e:	5d                   	pop    %ebp
c000663f:	c3                   	ret    

c0006640 <seek>:
c0006640:	55                   	push   %ebp
c0006641:	89 e5                	mov    %esp,%ebp
c0006643:	83 ec 10             	sub    $0x10,%esp
c0006646:	c7 45 fc 00 00 00 00 	movl   $0x0,-0x4(%ebp)
c000664d:	8b 45 10             	mov    0x10(%ebp),%eax
c0006650:	83 f8 01             	cmp    $0x1,%eax
c0006653:	74 21                	je     c0006676 <seek+0x36>
c0006655:	83 f8 01             	cmp    $0x1,%eax
c0006658:	7f 06                	jg     c0006660 <seek+0x20>
c000665a:	85 c0                	test   %eax,%eax
c000665c:	74 0e                	je     c000666c <seek+0x2c>
c000665e:	eb 35                	jmp    c0006695 <seek+0x55>
c0006660:	83 f8 02             	cmp    $0x2,%eax
c0006663:	74 1c                	je     c0006681 <seek+0x41>
c0006665:	83 f8 03             	cmp    $0x3,%eax
c0006668:	74 22                	je     c000668c <seek+0x4c>
c000666a:	eb 29                	jmp    c0006695 <seek+0x55>
c000666c:	8b 45 08             	mov    0x8(%ebp),%eax
c000666f:	8b 00                	mov    (%eax),%eax
c0006671:	89 45 fc             	mov    %eax,-0x4(%ebp)
c0006674:	eb 1f                	jmp    c0006695 <seek+0x55>
c0006676:	8b 45 08             	mov    0x8(%ebp),%eax
c0006679:	8b 40 08             	mov    0x8(%eax),%eax
c000667c:	89 45 fc             	mov    %eax,-0x4(%ebp)
c000667f:	eb 14                	jmp    c0006695 <seek+0x55>
c0006681:	8b 45 08             	mov    0x8(%ebp),%eax
c0006684:	8b 40 0c             	mov    0xc(%eax),%eax
c0006687:	89 45 fc             	mov    %eax,-0x4(%ebp)
c000668a:	eb 09                	jmp    c0006695 <seek+0x55>
c000668c:	8b 45 08             	mov    0x8(%ebp),%eax
c000668f:	8b 40 04             	mov    0x4(%eax),%eax
c0006692:	89 45 fc             	mov    %eax,-0x4(%ebp)
c0006695:	8b 45 0c             	mov    0xc(%ebp),%eax
c0006698:	01 45 fc             	add    %eax,-0x4(%ebp)
c000669b:	8b 45 08             	mov    0x8(%ebp),%eax
c000669e:	8b 40 04             	mov    0x4(%eax),%eax
c00066a1:	3b 45 fc             	cmp    -0x4(%ebp),%eax
c00066a4:	73 07                	jae    c00066ad <seek+0x6d>
c00066a6:	b8 ff ff ff ff       	mov    $0xffffffff,%eax
c00066ab:	eb 17                	jmp    c00066c4 <seek+0x84>
c00066ad:	8b 55 fc             	mov    -0x4(%ebp),%edx
c00066b0:	8b 45 08             	mov    0x8(%ebp),%eax
c00066b3:	89 50 0c             	mov    %edx,0xc(%eax)
c00066b6:	8b 55 fc             	mov    -0x4(%ebp),%edx
c00066b9:	8b 45 08             	mov    0x8(%ebp),%eax
c00066bc:	89 50 08             	mov    %edx,0x8(%eax)
c00066bf:	b8 00 00 00 00       	mov    $0x0,%eax
c00066c4:	c9                   	leave  
c00066c5:	c3                   	ret    

c00066c6 <list>:
c00066c6:	55                   	push   %ebp
c00066c7:	89 e5                	mov    %esp,%ebp
c00066c9:	83 ec 38             	sub    $0x38,%esp
c00066cc:	8b 45 08             	mov    0x8(%ebp),%eax
c00066cf:	8b 40 18             	mov    0x18(%eax),%eax
c00066d2:	89 45 e4             	mov    %eax,-0x1c(%ebp)
c00066d5:	ba cd cc cc cc       	mov    $0xcccccccd,%edx
c00066da:	8b 45 e4             	mov    -0x1c(%ebp),%eax
c00066dd:	f7 e2                	mul    %edx
c00066df:	89 d0                	mov    %edx,%eax
c00066e1:	c1 e8 04             	shr    $0x4,%eax
c00066e4:	89 45 ec             	mov    %eax,-0x14(%ebp)
c00066e7:	c7 45 f0 00 00 00 00 	movl   $0x0,-0x10(%ebp)
c00066ee:	8b 45 08             	mov    0x8(%ebp),%eax
c00066f1:	8b 40 1c             	mov    0x1c(%eax),%eax
c00066f4:	8b 00                	mov    (%eax),%eax
c00066f6:	89 45 f4             	mov    %eax,-0xc(%ebp)
c00066f9:	b8 98 7c 00 c0       	mov    $0xc0007c98,%eax
c00066fe:	8b 55 f4             	mov    -0xc(%ebp),%edx
c0006701:	89 54 24 04          	mov    %edx,0x4(%esp)
c0006705:	89 04 24             	mov    %eax,(%esp)
c0006708:	e8 fb ef ff ff       	call   c0005708 <printf>
c000670d:	8b 45 f4             	mov    -0xc(%ebp),%eax
c0006710:	8b 50 10             	mov    0x10(%eax),%edx
c0006713:	b8 a5 7c 00 c0       	mov    $0xc0007ca5,%eax
c0006718:	89 54 24 04          	mov    %edx,0x4(%esp)
c000671c:	89 04 24             	mov    %eax,(%esp)
c000671f:	e8 e4 ef ff ff       	call   c0005708 <printf>
c0006724:	b8 b7 7c 00 c0       	mov    $0xc0007cb7,%eax
c0006729:	8b 55 ec             	mov    -0x14(%ebp),%edx
c000672c:	89 54 24 04          	mov    %edx,0x4(%esp)
c0006730:	89 04 24             	mov    %eax,(%esp)
c0006733:	e8 d0 ef ff ff       	call   c0005708 <printf>
c0006738:	eb 28                	jmp    c0006762 <list+0x9c>
c000673a:	8b 55 f0             	mov    -0x10(%ebp),%edx
c000673d:	89 d0                	mov    %edx,%eax
c000673f:	c1 e0 02             	shl    $0x2,%eax
c0006742:	01 d0                	add    %edx,%eax
c0006744:	c1 e0 02             	shl    $0x2,%eax
c0006747:	03 45 f4             	add    -0xc(%ebp),%eax
c000674a:	8b 50 10             	mov    0x10(%eax),%edx
c000674d:	b8 cd 7c 00 c0       	mov    $0xc0007ccd,%eax
c0006752:	89 54 24 04          	mov    %edx,0x4(%esp)
c0006756:	89 04 24             	mov    %eax,(%esp)
c0006759:	e8 aa ef ff ff       	call   c0005708 <printf>
c000675e:	83 45 f0 01          	addl   $0x1,-0x10(%ebp)
c0006762:	8b 45 f0             	mov    -0x10(%ebp),%eax
c0006765:	3b 45 ec             	cmp    -0x14(%ebp),%eax
c0006768:	7c d0                	jl     c000673a <list+0x74>
c000676a:	c9                   	leave  
c000676b:	c3                   	ret    

c000676c <open>:
c000676c:	55                   	push   %ebp
c000676d:	89 e5                	mov    %esp,%ebp
c000676f:	83 ec 18             	sub    $0x18,%esp
c0006772:	b8 d4 7c 00 c0       	mov    $0xc0007cd4,%eax
c0006777:	89 04 24             	mov    %eax,(%esp)
c000677a:	e8 89 ef ff ff       	call   c0005708 <printf>
c000677f:	b8 00 00 00 00       	mov    $0x0,%eax
c0006784:	c9                   	leave  
c0006785:	c3                   	ret    

c0006786 <close>:
c0006786:	55                   	push   %ebp
c0006787:	89 e5                	mov    %esp,%ebp
c0006789:	83 ec 18             	sub    $0x18,%esp
c000678c:	b8 fc 7c 00 c0       	mov    $0xc0007cfc,%eax
c0006791:	89 04 24             	mov    %eax,(%esp)
c0006794:	e8 6f ef ff ff       	call   c0005708 <printf>
c0006799:	b8 ff ff ff ff       	mov    $0xffffffff,%eax
c000679e:	c9                   	leave  
c000679f:	c3                   	ret    
	...

Disassembly of section .data:

c0007000 <__data>:
c0007000:	6f                   	outsl  %ds:(%esi),(%dx)
c0007001:	74 00                	je     c0007003 <__data+0x3>
c0007003:	c0 00 00             	rolb   $0x0,(%eax)
	...

c0007020 <keycodes>:
c0007020:	00 ff                	add    %bh,%bh
c0007022:	00 ff                	add    %bh,%bh
c0007024:	00 ff                	add    %bh,%bh
c0007026:	00 00                	add    %al,(%eax)
c0007028:	01 76 08             	add    %esi,0x8(%esi)
c000702b:	1d 29 35 01 00       	sbb    $0x13529,%eax
c0007030:	02 16                	add    (%esi),%dl
c0007032:	16                   	push   %ss
c0007033:	1e                   	push   %ds
c0007034:	1e                   	push   %ds
c0007035:	12 02                	adc    (%edx),%al
c0007037:	31 03                	xor    %eax,(%ebx)
c0007039:	1e                   	push   %ds
c000703a:	1e                   	push   %ds
c000703b:	1f                   	pop    %ds
c000703c:	1f                   	pop    %ds
c000703d:	13 03                	adc    (%ebx),%eax
c000703f:	32 04 26             	xor    (%esi,%eiz,1),%al
c0007042:	26 20 20             	and    %ah,%es:(%eax)
c0007045:	14 04                	adc    $0x4,%al
c0007047:	33 05 25 25 21 21    	xor    0x21212525,%eax
c000704d:	15 05 34 06 2e       	adc    $0x2e063405,%eax
c0007052:	2e 22 22             	and    %cs:(%edx),%ah
c0007055:	17                   	pop    %ss
c0007056:	06                   	push   %es
c0007057:	35 07 36 36 23       	xor    $0x23363607,%eax
c000705c:	23 16                	and    (%esi),%edx
c000705e:	07                   	pop    %es
c000705f:	36 08 3d 3d 24 24 1a 	or     %bh,%ss:0x1a24243d
c0007066:	08 37                	or     %dh,(%edi)
c0007068:	09 3e                	or     %edi,(%esi)
c000706a:	3e                   	ds
c000706b:	25 25 1c 09 38       	and    $0x38091c25,%eax
c0007070:	0a 46 46             	or     0x46(%esi),%al
c0007073:	26 26 19 0a          	sbb    %ecx,%es:(%edx)
c0007077:	39 0b                	cmp    %ecx,(%ebx)
c0007079:	45                   	inc    %ebp
c000707a:	45                   	inc    %ebp
c000707b:	27                   	daa    
c000707c:	27                   	daa    
c000707d:	1d 0b 30 0c 4e       	sbb    $0x4e0c300b,%eax
c0007082:	4e                   	dec    %esi
c0007083:	28 2d 1b 0c 2d 0d    	sub    %ch,0xd2d0c1b
c0007089:	55                   	push   %ebp
c000708a:	55                   	push   %ebp
c000708b:	29 2e                	sub    %ebp,(%esi)
c000708d:	18 0d 3d 0e 66 66    	sbb    %cl,0x66660e3d
c0007093:	2b 2a                	sub    (%edx),%ebp
c0007095:	33 0e                	xor    (%esi),%ecx
c0007097:	08 0f                	or     %cl,(%edi)
c0007099:	0d 0d 35 2b 30       	or     $0x302b350d,%eax
c000709e:	0f 09                	wbinvd 
c00070a0:	10 15 15 36 14 0c    	adc    %dl,0xc143615
c00070a6:	10 71 11             	adc    %dh,0x11(%ecx)
c00070a9:	1d 1d 37 1a 0d       	sbb    $0xd1a371d,%eax
c00070ae:	11 77 12             	adc    %esi,0x12(%edi)
c00070b1:	24 24                	and    $0x24,%al
c00070b3:	38 08                	cmp    %cl,(%eax)
c00070b5:	0e                   	push   %cs
c00070b6:	12 65 13             	adc    0x13(%ebp),%ah
c00070b9:	2d 2d 39 15 0f       	sub    $0xf15392d,%eax
c00070be:	13 72 14             	adc    0x14(%edx),%esi
c00070c1:	2c 2c                	sub    $0x2c,%al
c00070c3:	3a 17                	cmp    (%edi),%dl
c00070c5:	11 14 74             	adc    %edx,(%esp,%esi,2)
c00070c8:	15 35 35 3b 1c       	adc    $0x1c3b3535,%eax
c00070cd:	10 15 79 16 3c 3c    	adc    %dl,0x3c3c1679
c00070d3:	3c 18                	cmp    $0x18,%al
c00070d5:	20 16                	and    %dl,(%esi)
c00070d7:	75 17                	jne    c00070f0 <keycodes+0xd0>
c00070d9:	43                   	inc    %ebx
c00070da:	43                   	inc    %ebx
c00070db:	3d 0c 22 17 69       	cmp    $0x6917220c,%eax
c00070e0:	18 44 44 3e          	sbb    %al,0x3e(%esp,%eax,2)
c00070e4:	12 1f                	adc    (%edi),%bl
c00070e6:	18 6f 19             	sbb    %ch,0x19(%edi)
c00070e9:	4d                   	dec    %ebp
c00070ea:	4d                   	dec    %ebp
c00070eb:	3f                   	aas    
c00070ec:	13 23                	adc    (%ebx),%esp
c00070ee:	19 70 1a             	sbb    %esi,0x1a(%eax)
c00070f1:	54                   	push   %esp
c00070f2:	54                   	push   %esp
c00070f3:	40                   	inc    %eax
c00070f4:	2f                   	das    
c00070f5:	21 1a                	and    %ebx,(%edx)
c00070f7:	5b                   	pop    %ebx
c00070f8:	1b 5b 5b             	sbb    0x5b(%ebx),%ebx
c00070fb:	41                   	inc    %ecx
c00070fc:	30 1e                	xor    %bl,(%esi)
c00070fe:	1b 5d 1c             	sbb    0x1c(%ebp),%ebx
c0007101:	5a                   	pop    %edx
c0007102:	5a                   	pop    %edx
c0007103:	59                   	pop    %ecx
c0007104:	28 24 1c             	sub    %ah,(%esp,%ebx,1)
c0007107:	0a 1d 14 11 4c e0    	or     0xe04c1114,%bl
c000710d:	36                   	ss
c000710e:	1d 00 1e 1c 1c       	sbb    $0x1c1c1e00,%eax
c0007113:	4d                   	dec    %ebp
c0007114:	04 00                	add    $0x0,%al
c0007116:	1e                   	push   %ds
c0007117:	61                   	popa   
c0007118:	1f                   	pop    %ds
c0007119:	1b 1b                	sbb    (%ebx),%ebx
c000711b:	4e                   	dec    %esi
c000711c:	16                   	push   %ss
c000711d:	01 1f                	add    %ebx,(%edi)
c000711f:	73 20                	jae    c0007141 <keycodes+0x121>
c0007121:	23 23                	and    (%ebx),%esp
c0007123:	4f                   	dec    %edi
c0007124:	07                   	pop    %es
c0007125:	02 20                	add    (%eax),%ah
c0007127:	64 21 2b             	and    %ebp,%fs:(%ebx)
c000712a:	2b 50 09             	sub    0x9(%eax),%edx
c000712d:	03 21                	add    (%ecx),%esp
c000712f:	66                   	data16
c0007130:	22 34 34             	and    (%esp,%esi,1),%dh
c0007133:	51                   	push   %ecx
c0007134:	0a 05 22 67 23 33    	or     0x33236722,%al
c000713a:	33 52 0b             	xor    0xb(%edx),%edx
c000713d:	04 23                	add    $0x23,%al
c000713f:	68 24 3b 3b 53       	push   $0x533b3b24
c0007144:	0d 26 24 6a 25       	or     $0x256a2426,%eax
c0007149:	42                   	inc    %edx
c000714a:	42                   	inc    %edx
c000714b:	54                   	push   %esp
c000714c:	0e                   	push   %cs
c000714d:	28 25 6b 26 4b 4b    	sub    %ah,0x4b4b266b
c0007153:	55                   	push   %ebp
c0007154:	0f 25                	(bad)  
c0007156:	26                   	es
c0007157:	6c                   	insb   (%dx),%es:(%edi)
c0007158:	27                   	daa    
c0007159:	4c                   	dec    %esp
c000715a:	4c                   	dec    %esp
c000715b:	56                   	push   %esi
c000715c:	33 29                	xor    (%ecx),%ebp
c000715e:	27                   	daa    
c000715f:	3b 28                	cmp    (%eax),%ebp
c0007161:	52                   	push   %edx
c0007162:	52                   	push   %edx
c0007163:	57                   	push   %edi
c0007164:	34 27                	xor    $0x27,%al
c0007166:	28 27                	sub    %ah,(%edi)
c0007168:	29 0e                	sub    %ecx,(%esi)
c000716a:	0e                   	push   %cs
c000716b:	2a 35 32 29 60 2a    	sub    0x2a602932,%dh
c0007171:	12 12                	adc    (%edx),%dl
c0007173:	63 e1                	arpl   %sp,%cx
c0007175:	38 2a                	cmp    %ch,(%edx)
c0007177:	00 2b                	add    %ch,(%ebx)
c0007179:	5d                   	pop    %ebp
c000717a:	5c                   	pop    %esp
c000717b:	58                   	pop    %eax
c000717c:	31 2a                	xor    %ebp,(%edx)
c000717e:	2b 7c 2c 1a          	sub    0x1a(%esp,%ebp,1),%edi
c0007182:	1a 64 1d 06          	sbb    0x6(%ebp,%ebx,1),%ah
c0007186:	2c 7a                	sub    $0x7a,%al
c0007188:	2d 22 22 65 1b       	sub    $0x1b652222,%eax
c000718d:	07                   	pop    %es
c000718e:	2d 78 2e 21 21       	sub    $0x21212e78,%eax
c0007193:	66 06                	pushw  %es
c0007195:	08 2e                	or     %ch,(%esi)
c0007197:	63 2f                	arpl   %bp,(%edi)
c0007199:	2a 2a                	sub    (%edx),%ch
c000719b:	67 19 09             	addr16 sbb %ecx,(%bx,%di)
c000719e:	2f                   	das    
c000719f:	76 30                	jbe    c00071d1 <keycodes+0x1b1>
c00071a1:	32 32                	xor    (%edx),%dh
c00071a3:	68 05 0b 30 62       	push   $0x62300b05
c00071a8:	31 31                	xor    %esi,(%ecx)
c00071aa:	31 69 11             	xor    %ebp,0x11(%ecx)
c00071ad:	2d 31 6e 32 3a       	sub    $0x3a326e31,%eax
c00071b2:	3a 6a 10             	cmp    0x10(%edx),%ch
c00071b5:	2e 32 6d 33          	xor    %cs:0x33(%ebp),%ch
c00071b9:	41                   	inc    %ecx
c00071ba:	41                   	inc    %ecx
c00071bb:	6b 36 2b             	imul   $0x2b,(%esi),%esi
c00071be:	33 2c 34             	xor    (%esp,%esi,1),%ebp
c00071c1:	49                   	dec    %ecx
c00071c2:	49                   	dec    %ecx
c00071c3:	6c                   	insb   (%dx),%es:(%edi)
c00071c4:	37                   	aaa    
c00071c5:	2f                   	das    
c00071c6:	34 2e                	xor    $0x2e,%al
c00071c8:	35 4a 4a 6d 38       	xor    $0x386d4a4a,%eax
c00071cd:	2c 35                	sub    $0x35,%al
c00071cf:	2f                   	das    
c00071d0:	36                   	ss
c00071d1:	59                   	pop    %ecx
c00071d2:	59                   	pop    %ecx
c00071d3:	6e                   	outsb  %ds:(%esi),(%dx)
c00071d4:	e5 7b                	in     $0x7b,%eax
c00071d6:	36 00 37             	add    %dh,%ss:(%edi)
c00071d9:	7c 7e                	jl     c0007259 <keycodes+0x239>
c00071db:	2f                   	das    
c00071dc:	55                   	push   %ebp
c00071dd:	43                   	inc    %ebx
c00071de:	37                   	aaa    
c00071df:	00 38                	add    %bh,(%eax)
c00071e1:	11 19                	adc    %ebx,(%ecx)
c00071e3:	13 e2                	adc    %edx,%esp
c00071e5:	37                   	aaa    
c00071e6:	38 00                	cmp    %al,(%eax)
c00071e8:	39 29                	cmp    %ebp,(%ecx)
c00071ea:	29 79 2c             	sub    %edi,0x2c(%ecx)
c00071ed:	31 39                	xor    %edi,(%ecx)
c00071ef:	20 3a                	and    %bh,(%edx)
c00071f1:	58                   	pop    %eax
c00071f2:	14 77                	adc    $0x77,%al
c00071f4:	39 39                	cmp    %edi,(%ecx)
c00071f6:	3a 00                	cmp    (%eax),%al
c00071f8:	3b 05 07 05 3a 7a    	cmp    0x7a3a0507,%eax
c00071fe:	3b 00                	cmp    (%eax),%eax
c0007200:	3c 06                	cmp    $0x6,%al
c0007202:	0f 06                	clts   
c0007204:	3b 78 3c             	cmp    0x3c(%eax),%edi
c0007207:	00 3d 04 17 08 3c    	add    %bh,0x3c081704
c000720d:	63 3d 00 3e 0c 1f    	arpl   %di,0x1f0c3e00
c0007213:	0a 3d 76 3e 00 3f    	or     0x3f003e76,%bh
c0007219:	03 27                	add    (%edi),%esp
c000721b:	0c 3e                	or     $0x3e,%al
c000721d:	60                   	pusha  
c000721e:	3f                   	aas    
c000721f:	00 40 0b             	add    %al,0xb(%eax)
c0007222:	2f                   	das    
c0007223:	0e                   	push   %cs
c0007224:	3f                   	aas    
c0007225:	61                   	popa   
c0007226:	40                   	inc    %eax
c0007227:	00 41 02             	add    %al,0x2(%ecx)
c000722a:	37                   	aaa    
c000722b:	10 40 62             	adc    %al,0x62(%eax)
c000722e:	41                   	inc    %ecx
c000722f:	00 42 0a             	add    %al,0xa(%edx)
c0007232:	3f                   	aas    
c0007233:	11 41 64             	adc    %eax,0x64(%ecx)
c0007236:	42                   	inc    %edx
c0007237:	00 43 01             	add    %al,0x1(%ebx)
c000723a:	47                   	inc    %edi
c000723b:	12 42 65             	adc    0x65(%edx),%al
c000723e:	43                   	inc    %ebx
c000723f:	00 44 09 4f          	add    %al,0x4f(%ecx,%ecx,1)
c0007243:	07                   	pop    %es
c0007244:	43                   	inc    %ebx
c0007245:	6d                   	insl   (%dx),%es:(%edi)
c0007246:	44                   	inc    %esp
c0007247:	00 45 77             	add    %al,0x77(%ebp)
c000724a:	76 62                	jbe    c00072ae <keycodes+0x28e>
c000724c:	53                   	push   %ebx
c000724d:	47                   	inc    %edi
c000724e:	45                   	inc    %ebp
c000724f:	00 46 7e             	add    %al,0x7e(%esi)
c0007252:	5f                   	pop    %edi
c0007253:	17                   	pop    %ss
c0007254:	47                   	inc    %edi
c0007255:	6b 46 00 47          	imul   $0x47,0x0(%esi),%eax
c0007259:	6c                   	insb   (%dx),%es:(%edi)
c000725a:	6c                   	insb   (%dx),%es:(%edi)
c000725b:	44                   	inc    %esp
c000725c:	5f                   	pop    %edi
c000725d:	59                   	pop    %ecx
c000725e:	47                   	inc    %edi
c000725f:	00 48 75             	add    %cl,0x75(%eax)
c0007262:	75 45                	jne    c00072a9 <keycodes+0x289>
c0007264:	60                   	pusha  
c0007265:	5b                   	pop    %ebx
c0007266:	48                   	dec    %eax
c0007267:	00 49 7d             	add    %cl,0x7d(%ecx)
c000726a:	7d 46                	jge    c00072b2 <keycodes+0x292>
c000726c:	61                   	popa   
c000726d:	5c                   	pop    %esp
c000726e:	49                   	dec    %ecx
c000726f:	00 4a 7b             	add    %cl,0x7b(%edx)
c0007272:	84 47 56             	test   %al,0x56(%edi)
c0007275:	4e                   	dec    %esi
c0007276:	4a                   	dec    %edx
c0007277:	00 4b 6b             	add    %cl,0x6b(%ebx)
c000727a:	6b 5b 5c 56          	imul   $0x56,0x5c(%ebx),%ebx
c000727e:	4b                   	dec    %ebx
c000727f:	00 4c 73 73          	add    %cl,0x73(%ebx,%esi,2)
c0007283:	5c                   	pop    %esp
c0007284:	5d                   	pop    %ebp
c0007285:	57                   	push   %edi
c0007286:	4c                   	dec    %esp
c0007287:	00 4d 74             	add    %cl,0x74(%ebp)
c000728a:	74 5d                	je     c00072e9 <keycodes+0x2c9>
c000728c:	5e                   	pop    %esi
c000728d:	58                   	pop    %eax
c000728e:	4d                   	dec    %ebp
c000728f:	00 4e 79             	add    %cl,0x79(%esi)
c0007292:	7c 7d                	jl     c0007311 <keycodes+0x2f1>
c0007294:	57                   	push   %edi
c0007295:	45                   	inc    %ebp
c0007296:	4e                   	dec    %esi
c0007297:	00 4f 69             	add    %cl,0x69(%edi)
c000729a:	69 70 59 53 4f 00 50 	imul   $0x50004f53,0x59(%eax),%esi
c00072a1:	72 72                	jb     c0007315 <keycodes+0x2f5>
c00072a3:	71 5a                	jno    c00072ff <keycodes+0x2df>
c00072a5:	54                   	push   %esp
c00072a6:	50                   	push   %eax
c00072a7:	00 51 7a             	add    %dl,0x7a(%ecx)
c00072aa:	7a 72                	jp     c000731e <keycodes+0x2fe>
c00072ac:	5b                   	pop    %ebx
c00072ad:	55                   	push   %ebp
c00072ae:	51                   	push   %ecx
c00072af:	00 52 70             	add    %dl,0x70(%edx)
c00072b2:	70 5e                	jo     c0007312 <keycodes+0x2f2>
c00072b4:	62 52 52             	bound  %edx,0x52(%edx)
c00072b7:	00 53 71             	add    %dl,0x71(%ebx)
c00072ba:	71 32                	jno    c00072ee <keycodes+0x2ce>
c00072bc:	63 41 53             	arpl   %ax,0x53(%ecx)
c00072bf:	00 00                	add    %al,(%eax)
c00072c1:	78 56                	js     c0007319 <keycodes+0x2f9>
c00072c3:	09 44 67 57          	or     %eax,0x57(%edi,%eiz,2)
c00072c7:	00 00                	add    %al,(%eax)
c00072c9:	07                   	pop    %es
c00072ca:	5e                   	pop    %esi
c00072cb:	0b 45 6f             	or     0x6f(%ebp),%eax
c00072ce:	58                   	pop    %eax
c00072cf:	00 00                	add    %al,(%eax)
c00072d1:	da 79 5a             	fidivrl 0x5a(%ecx)
c00072d4:	58                   	pop    %eax
c00072d5:	4c                   	dec    %esp
c00072d6:	60                   	pusha  
c00072d7:	00 00                	add    %al,(%eax)
c00072d9:	ca 77 2e             	lret   $0x2e77
c00072dc:	54                   	push   %esp
c00072dd:	4b                   	dec    %ebx
c00072de:	62 00                	bound  %eax,(%eax)
c00072e0:	00 91 39 0d e6 7c    	add    %dl,0x7ce60d39(%ecx)
c00072e6:	64 00 00             	add    %al,%fs:(%eax)
c00072e9:	00 58 00             	add    %bl,0x0(%eax)
c00072ec:	00 00                	add    %al,(%eax)
c00072ee:	64 00 00             	add    %al,%fs:(%eax)
c00072f1:	f1                   	icebp  
c00072f2:	64                   	fs
c00072f3:	42                   	inc    %edx
c00072f4:	4c                   	dec    %esp
c00072f5:	75 6f                	jne    c0007366 <keycodes+0x346>
c00072f7:	00 00                	add    %al,(%eax)
c00072f9:	fe                   	(bad)  
c00072fa:	62 15 48 71 77 00    	bound  %edx,0x777148
c0007300:	00 f7                	add    %dh,%bh
c0007302:	00 00                	add    %al,(%eax)
c0007304:	00 00                	add    %al,(%eax)
c0007306:	77 00                	ja     c0007308 <keycodes+0x2e8>
c0007308:	00 ec                	add    %ch,%ah
c000730a:	6e                   	outsb  %ds:(%esi),(%dx)
c000730b:	34 4a                	xor    $0x4a,%al
c000730d:	73 66                	jae    c0007375 <state+0x5>
c000730f:	00 00                	add    %al,(%eax)
c0007311:	f5                   	cmc    
c0007312:	63 14 52             	arpl   %dx,(%edx,%edx,2)
c0007315:	3e 67 00 00          	addr16 add %al,%ds:(%bx,%si)
c0007319:	fd                   	std    
c000731a:	6f                   	outsl  %ds:(%esi),(%dx)
c000731b:	60                   	pusha  
c000731c:	4b                   	dec    %ebx
c000731d:	74 68                	je     c0007387 <cursor+0x7>
c000731f:	00 00                	add    %al,(%eax)
c0007321:	eb 61                	jmp    c0007384 <cursor+0x4>
c0007323:	18 50 3b             	sbb    %dl,0x3b(%eax)
c0007326:	69 00 00 f4 6a 1c    	imul   $0x1c6af400,(%eax),%eax
c000732c:	4f                   	dec    %edi
c000732d:	3c 6a                	cmp    $0x6a,%al
c000732f:	00 00                	add    %al,(%eax)
c0007331:	e9 65 4a 4d 77       	jmp    374dbd9b <__boot-0x88b24265>
c0007336:	6b 00 00             	imul   $0x0,(%eax),%eax
c0007339:	f2 60                	repnz pusha 
c000733b:	1b 51 3d             	sbb    0x3d(%ecx),%edx
c000733e:	6c                   	insb   (%dx),%es:(%edi)
c000733f:	00 00                	add    %al,(%eax)
c0007341:	fa                   	cli    
c0007342:	6d                   	insl   (%dx),%es:(%edi)
c0007343:	7b 4e                	jnp    c0007393 <col+0x7>
c0007345:	79 6d                	jns    c00073b4 <hex+0x14>
c0007347:	00 00                	add    %al,(%eax)
c0007349:	f0 67 2c 49          	lock addr16 sub $0x49,%al
c000734d:	72 6e                	jb     c00073bd <hex+0x1d>
c000734f:	00 00                	add    %al,(%eax)
c0007351:	9f                   	lahf   
c0007352:	8b 78 e3             	mov    -0x1d(%eax),%edi
c0007355:	00 7d 00             	add    %bh,0x0(%ebp)
c0007358:	00 a7 8c 7a e7 00    	add    %ah,0xe77a8c(%edi)
c000735e:	7e 00                	jle    c0007360 <keycodes+0x340>
c0007360:	00 af 8d 43 65 00    	add    %ch,0x65438d(%edi)
c0007366:	7f 00                	jg     c0007368 <seedTwo>

c0007368 <seedTwo>:
c0007368:	01 00                	add    %eax,(%eax)
	...

c000736c <seedOne>:
c000736c:	01 00                	add    %eax,(%eax)
	...

c0007370 <state>:
c0007370:	02 00                	add    (%eax),%al
	...

c0007380 <cursor>:
	...
c0007388:	10 00                	adc    %al,(%eax)
	...

c000738c <col>:
c000738c:	07                   	pop    %es
	...

c00073a0 <hex>:
c00073a0:	30 31                	xor    %dh,(%ecx)
c00073a2:	32 33                	xor    (%ebx),%dh
c00073a4:	34 35                	xor    $0x35,%al
c00073a6:	36                   	ss
c00073a7:	37                   	aaa    
c00073a8:	38 39                	cmp    %bh,(%ecx)
c00073aa:	61                   	popa   
c00073ab:	62 63 64             	bound  %esp,0x64(%ebx)
c00073ae:	65                   	gs
c00073af:	66 67 68 69 6a       	addr16 pushw $0x6a69
c00073b4:	6b 6c 6d 6e 6f       	imul   $0x6f,0x6e(%ebp,%ebp,2),%ebp
c00073b9:	70 71                	jo     c000742c <devPath+0x24>
c00073bb:	72 73                	jb     c0007430 <devPath+0x28>
c00073bd:	74 75                	je     c0007434 <devPath+0x2c>
c00073bf:	76 77                	jbe    c0007438 <devPath+0x30>
c00073c1:	78 79                	js     c000743c <devPath+0x34>
c00073c3:	7a 00                	jp     c00073c5 <hex+0x25>
	...

c00073e0 <HEX>:
c00073e0:	30 31                	xor    %dh,(%ecx)
c00073e2:	32 33                	xor    (%ebx),%dh
c00073e4:	34 35                	xor    $0x35,%al
c00073e6:	36                   	ss
c00073e7:	37                   	aaa    
c00073e8:	38 39                	cmp    %bh,(%ecx)
c00073ea:	41                   	inc    %ecx
c00073eb:	42                   	inc    %edx
c00073ec:	43                   	inc    %ebx
c00073ed:	44                   	inc    %esp
c00073ee:	45                   	inc    %ebp
c00073ef:	46                   	inc    %esi
c00073f0:	47                   	inc    %edi
c00073f1:	48                   	dec    %eax
c00073f2:	49                   	dec    %ecx
c00073f3:	4a                   	dec    %edx
c00073f4:	4b                   	dec    %ebx
c00073f5:	4c                   	dec    %esp
c00073f6:	4d                   	dec    %ebp
c00073f7:	4e                   	dec    %esi
c00073f8:	4f                   	dec    %edi
c00073f9:	50                   	push   %eax
c00073fa:	51                   	push   %ecx
c00073fb:	52                   	push   %edx
c00073fc:	53                   	push   %ebx
c00073fd:	54                   	push   %esp
c00073fe:	55                   	push   %ebp
c00073ff:	56                   	push   %esi
c0007400:	57                   	push   %edi
c0007401:	58                   	pop    %eax
c0007402:	59                   	pop    %ecx
c0007403:	5a                   	pop    %edx

c0007404 <procPath>:
c0007404:	a8 7b                	test   $0x7b,%al
c0007406:	00 c0                	add    %al,%al

c0007408 <devPath>:
c0007408:	ad                   	lods   %ds:(%esi),%eax
c0007409:	7b 00                	jnp    c000740b <devPath+0x3>
c000740b:	c0 57 41 52          	rclb   $0x52,0x41(%edi)
c000740f:	4e                   	dec    %esi
c0007410:	49                   	dec    %ecx
c0007411:	4e                   	dec    %esi
c0007412:	47                   	inc    %edi
c0007413:	3a 20                	cmp    (%eax),%ah
c0007415:	54                   	push   %esp
c0007416:	68 65 20 41 50       	push   $0x50412065
c000741b:	49                   	dec    %ecx
c000741c:	43                   	inc    %ebx
c000741d:	20 68 61             	and    %ch,0x61(%eax)
c0007420:	73 6e                	jae    c0007490 <devPath+0x88>
c0007422:	27                   	daa    
c0007423:	74 20                	je     c0007445 <devPath+0x3d>
c0007425:	67 6f                	addr16 outsl %ds:(%si),(%dx)
c0007427:	74 20                	je     c0007449 <devPath+0x41>
c0007429:	61                   	popa   
c000742a:	6e                   	outsb  %ds:(%esi),(%dx)
c000742b:	79 20                	jns    c000744d <devPath+0x45>
c000742d:	69 6d 70 6c 65 6d 65 	imul   $0x656d656c,0x70(%ebp),%ebp
c0007434:	6e                   	outsb  %ds:(%esi),(%dx)
c0007435:	74 61                	je     c0007498 <devPath+0x90>
c0007437:	74 69                	je     c00074a2 <devPath+0x9a>
c0007439:	6f                   	outsl  %ds:(%esi),(%dx)
c000743a:	6e                   	outsb  %ds:(%esi),(%dx)
c000743b:	21 0a                	and    %ecx,(%edx)
c000743d:	46                   	inc    %esi
c000743e:	61                   	popa   
c000743f:	6c                   	insb   (%dx),%es:(%edi)
c0007440:	6c                   	insb   (%dx),%es:(%edi)
c0007441:	69 6e 67 20 62 61 63 	imul   $0x63616220,0x67(%esi),%ebp
c0007448:	6b 20 74             	imul   $0x74,(%eax),%esp
c000744b:	6f                   	outsl  %ds:(%esi),(%dx)
c000744c:	20 50 49             	and    %dl,0x49(%eax)
c000744f:	43                   	inc    %ebx
c0007450:	20 64 72 69          	and    %ah,0x69(%edx,%esi,2)
c0007454:	76 65                	jbe    c00074bb <devPath+0xb3>
c0007456:	72 0a                	jb     c0007462 <devPath+0x5a>
c0007458:	00 41 69             	add    %al,0x69(%ecx)
c000745b:	65                   	gs
c000745c:	65                   	gs
c000745d:	2c 20                	sub    $0x20,%al
c000745f:	4e                   	dec    %esi
c0007460:	55                   	push   %ebp
c0007461:	4c                   	dec    %esp
c0007462:	4c                   	dec    %esp
c0007463:	20 70 6f             	and    %dh,0x6f(%eax)
c0007466:	69 6e 74 65 72 21 21 	imul   $0x21217265,0x74(%esi),%ebp
c000746d:	21 00                	and    %eax,(%eax)
c000746f:	43                   	inc    %ebx
c0007470:	68 65 63 6b 70       	push   $0x706b6365
c0007475:	6f                   	outsl  %ds:(%esi),(%dx)
c0007476:	69 6e 74 0a 00 41 69 	imul   $0x6941000a,0x74(%esi),%ebp
c000747d:	65                   	gs
c000747e:	65                   	gs
c000747f:	2c 20                	sub    $0x20,%al
c0007481:	4e                   	dec    %esi
c0007482:	55                   	push   %ebp
c0007483:	4c                   	dec    %esp
c0007484:	4c                   	dec    %esp
c0007485:	20 70 6f             	and    %dh,0x6f(%eax)
c0007488:	69 6e 74 65 72 21 21 	imul   $0x21217265,0x74(%esi),%ebp
c000748f:	21 00                	and    %eax,(%eax)
c0007491:	00 00                	add    %al,(%eax)
c0007493:	00 25 58 0a 00 49    	add    %ah,0x49000a58
c0007499:	6e                   	outsb  %ds:(%esi),(%dx)
c000749a:	63 6f 72             	arpl   %bp,0x72(%edi)
c000749d:	72 65                	jb     c0007504 <devPath+0xfc>
c000749f:	63 74 20 43          	arpl   %si,0x43(%eax,%eiz,1)
c00074a3:	53                   	push   %ebx
c00074a4:	21 00                	and    %eax,(%eax)
c00074a6:	49                   	dec    %ecx
c00074a7:	6e                   	outsb  %ds:(%esi),(%dx)
c00074a8:	63 6f 72             	arpl   %bp,0x72(%edi)
c00074ab:	72 65                	jb     c0007512 <devPath+0x10a>
c00074ad:	63 74 20 44          	arpl   %si,0x44(%eax,%eiz,1)
c00074b1:	53                   	push   %ebx
c00074b2:	21 00                	and    %eax,(%eax)
c00074b4:	44                   	inc    %esp
c00074b5:	30 0a                	xor    %cl,(%edx)
c00074b7:	00 4e 6f             	add    %cl,0x6f(%esi)
c00074ba:	20 70 72             	and    %dh,0x72(%eax)
c00074bd:	6f                   	outsl  %ds:(%esi),(%dx)
c00074be:	63 65 73             	arpl   %sp,0x73(%ebp)
c00074c1:	73 20                	jae    c00074e3 <devPath+0xdb>
c00074c3:	6b 69 6c 6c          	imul   $0x6c,0x6c(%ecx),%ebp
c00074c7:	69 6e 67 20 63 6f 64 	imul   $0x646f6320,0x67(%esi),%ebp
c00074ce:	65 20 79 65          	and    %bh,%gs:0x65(%ecx)
c00074d2:	74 00                	je     c00074d4 <devPath+0xcc>
c00074d4:	0a 44 69 76          	or     0x76(%ecx,%ebp,2),%al
c00074d8:	20 62 79             	and    %ah,0x79(%edx)
c00074db:	20 30                	and    %dh,(%eax)
c00074dd:	0a 65 69             	or     0x69(%ebp),%ah
c00074e0:	70 09                	jo     c00074eb <devPath+0xe3>
c00074e2:	63 73 09             	arpl   %si,0x9(%ebx)
c00074e5:	65                   	gs
c00074e6:	66                   	data16
c00074e7:	6c                   	insb   (%dx),%es:(%edi)
c00074e8:	61                   	popa   
c00074e9:	67 73 09             	addr16 jae c00074f5 <devPath+0xed>
c00074ec:	70 72                	jo     c0007560 <devPath+0x158>
c00074ee:	6f                   	outsl  %ds:(%esi),(%dx)
c00074ef:	63 65 73             	arpl   %sp,0x73(%ebp)
c00074f2:	70 09                	jo     c00074fd <devPath+0xf5>
c00074f4:	73 73                	jae    c0007569 <devPath+0x161>
c00074f6:	0a 00                	or     (%eax),%al
c00074f8:	25 58 09 25 58       	and    $0x58250958,%eax
c00074fd:	09 25 58 09 25 58    	or     %esp,0x58250958
c0007503:	09 25 58 0a 00 0a    	or     %esp,0xa000a58
c0007509:	43                   	inc    %ebx
c000750a:	75 72                	jne    c000757e <devPath+0x176>
c000750c:	72 65                	jb     c0007573 <devPath+0x16b>
c000750e:	6e                   	outsb  %ds:(%esi),(%dx)
c000750f:	74 3a                	je     c000754b <devPath+0x143>
c0007511:	0a 00                	or     (%eax),%al
c0007513:	43                   	inc    %ebx
c0007514:	53                   	push   %ebx
c0007515:	09 44 53 09          	or     %eax,0x9(%ebx,%edx,2)
c0007519:	53                   	push   %ebx
c000751a:	53                   	push   %ebx
c000751b:	09 45 53             	or     %eax,0x53(%ebp)
c000751e:	50                   	push   %eax
c000751f:	0a 00                	or     (%eax),%al
c0007521:	25 58 09 25 58       	and    $0x58250958,%eax
c0007526:	09 25 58 09 25 58    	or     %esp,0x58250958
c000752c:	0a 00                	or     (%eax),%al
c000752e:	44                   	inc    %esp
c000752f:	65                   	gs
c0007530:	76 69                	jbe    c000759b <devPath+0x193>
c0007532:	64 65 20 62 79       	and    %ah,%fs:%gs:0x79(%edx)
c0007537:	20 7a 65             	and    %bh,0x65(%edx)
c000753a:	72 6f                	jb     c00075ab <devPath+0x1a3>
c000753c:	00 4e 4d             	add    %cl,0x4d(%esi)
c000753f:	49                   	dec    %ecx
c0007540:	0a 00                	or     (%eax),%al
c0007542:	00 00                	add    %al,(%eax)
c0007544:	44                   	inc    %esp
c0007545:	6f                   	outsl  %ds:(%esi),(%dx)
c0007546:	6e                   	outsb  %ds:(%esi),(%dx)
c0007547:	27                   	daa    
c0007548:	74 20                	je     c000756a <devPath+0x162>
c000754a:	6b 6e 6f 77          	imul   $0x77,0x6f(%esi),%ebp
c000754e:	20 77 68             	and    %dh,0x68(%edi)
c0007551:	61                   	popa   
c0007552:	74 20                	je     c0007574 <devPath+0x16c>
c0007554:	61                   	popa   
c0007555:	20 6e 6f             	and    %ch,0x6f(%esi)
c0007558:	6e                   	outsb  %ds:(%esi),(%dx)
c0007559:	2d 6d 61 73 6b       	sub    $0x6b73616d,%eax
c000755e:	61                   	popa   
c000755f:	62 6c 65 20          	bound  %ebp,0x20(%ebp,%eiz,2)
c0007563:	69 6e 74 65 72 72 75 	imul   $0x75727265,0x74(%esi),%ebp
c000756a:	70 74                	jo     c00075e0 <devPath+0x1d8>
c000756c:	20 64 6f 65          	and    %ah,0x65(%edi,%ebp,2)
c0007570:	73 21                	jae    c0007593 <devPath+0x18b>
c0007572:	21 21                	and    %esp,(%ecx)
c0007574:	00 42 50             	add    %al,0x50(%edx)
c0007577:	0a 00                	or     (%eax),%al
c0007579:	44                   	inc    %esp
c000757a:	65 62 75 67          	bound  %esi,%gs:0x67(%ebp)
c000757e:	3a 0a                	cmp    (%edx),%cl
c0007580:	00 65 61             	add    %ah,0x61(%ebp)
c0007583:	78 09                	js     c000758e <devPath+0x186>
c0007585:	65 62 78 09          	bound  %edi,%gs:0x9(%eax)
c0007589:	65 63 78 09          	arpl   %di,%gs:0x9(%eax)
c000758d:	65                   	gs
c000758e:	64                   	fs
c000758f:	78 0a                	js     c000759b <devPath+0x193>
c0007591:	25 58 09 25 58       	and    $0x58250958,%eax
c0007596:	09 25 58 09 25 58    	or     %esp,0x58250958
c000759c:	0a 00                	or     (%eax),%al
c000759e:	0a 64 73 0a          	or     0xa(%ebx,%esi,2),%ah
c00075a2:	25 58 0a 00 0a       	and    $0xa000a58,%eax
c00075a7:	65 64 69 09 65 73 69 	imul   $0x9697365,%fs:%gs:(%ecx),%ecx
c00075ae:	09 
c00075af:	65 62 70 09          	bound  %esi,%gs:0x9(%eax)
c00075b3:	65                   	gs
c00075b4:	73 70                	jae    c0007626 <devPath+0x21e>
c00075b6:	0a 25 58 09 25 58    	or     0x58250958,%ah
c00075bc:	09 25 58 09 25 58    	or     %esp,0x58250958
c00075c2:	0a 00                	or     (%eax),%al
c00075c4:	0a 65 69             	or     0x69(%ebp),%ah
c00075c7:	70 09                	jo     c00075d2 <devPath+0x1ca>
c00075c9:	63 73 09             	arpl   %si,0x9(%ebx)
c00075cc:	65                   	gs
c00075cd:	66                   	data16
c00075ce:	6c                   	insb   (%dx),%es:(%edi)
c00075cf:	61                   	popa   
c00075d0:	67 73 09             	addr16 jae c00075dc <devPath+0x1d4>
c00075d3:	75 73                	jne    c0007648 <devPath+0x240>
c00075d5:	65                   	gs
c00075d6:	72 65                	jb     c000763d <devPath+0x235>
c00075d8:	73 70                	jae    c000764a <devPath+0x242>
c00075da:	09 73 73             	or     %esi,0x73(%ebx)
c00075dd:	0a 25 58 09 25 58    	or     0x58250958,%ah
c00075e3:	09 25 58 09 25 58    	or     %esp,0x58250958
c00075e9:	09 25 58 0a 00 0a    	or     %esp,0xa000a58
c00075ef:	65                   	gs
c00075f0:	72 72                	jb     c0007664 <devPath+0x25c>
c00075f2:	5f                   	pop    %edi
c00075f3:	63 6f 64             	arpl   %bp,0x64(%edi)
c00075f6:	65 09 66 75          	or     %esp,%gs:0x75(%esi)
c00075fa:	6e                   	outsb  %ds:(%esi),(%dx)
c00075fb:	63 5f 70             	arpl   %bx,0x70(%edi)
c00075fe:	74 72                	je     c0007672 <devPath+0x26a>
c0007600:	0a 25 58 09 25 58    	or     0x58250958,%ah
c0007606:	0a 00                	or     (%eax),%al
c0007608:	0a 0a                	or     (%edx),%cl
c000760a:	43                   	inc    %ebx
c000760b:	75 72                	jne    c000767f <devPath+0x277>
c000760d:	72 65                	jb     c0007674 <devPath+0x26c>
c000760f:	6e                   	outsb  %ds:(%esi),(%dx)
c0007610:	74 3a                	je     c000764c <devPath+0x244>
c0007612:	0a 00                	or     (%eax),%al
c0007614:	43                   	inc    %ebx
c0007615:	53                   	push   %ebx
c0007616:	09 44 53 09          	or     %eax,0x9(%ebx,%edx,2)
c000761a:	53                   	push   %ebx
c000761b:	53                   	push   %ebx
c000761c:	09 45 53             	or     %eax,0x53(%ebp)
c000761f:	50                   	push   %eax
c0007620:	0a 25 58 09 25 58    	or     0x58250958,%ah
c0007626:	09 25 58 09 25 58    	or     %esp,0x58250958
c000762c:	0a 00                	or     (%eax),%al
c000762e:	4f                   	dec    %edi
c000762f:	46                   	inc    %esi
c0007630:	0a 00                	or     (%eax),%al
c0007632:	4f                   	dec    %edi
c0007633:	76 65                	jbe    c000769a <devPath+0x292>
c0007635:	72 66                	jb     c000769d <devPath+0x295>
c0007637:	6c                   	insb   (%dx),%es:(%edi)
c0007638:	6f                   	outsl  %ds:(%esi),(%dx)
c0007639:	77 00                	ja     c000763b <devPath+0x233>
c000763b:	42                   	inc    %edx
c000763c:	44                   	inc    %esp
c000763d:	0a 00                	or     (%eax),%al
c000763f:	42                   	inc    %edx
c0007640:	6f                   	outsl  %ds:(%esi),(%dx)
c0007641:	75 6e                	jne    c00076b1 <devPath+0x2a9>
c0007643:	64                   	fs
c0007644:	73 00                	jae    c0007646 <devPath+0x23e>
c0007646:	49                   	dec    %ecx
c0007647:	56                   	push   %esi
c0007648:	0a 00                	or     (%eax),%al
c000764a:	49                   	dec    %ecx
c000764b:	6e                   	outsb  %ds:(%esi),(%dx)
c000764c:	76 61                	jbe    c00076af <devPath+0x2a7>
c000764e:	6c                   	insb   (%dx),%es:(%edi)
c000764f:	69 64 20 4f 70 63 6f 	imul   $0x646f6370,0x4f(%eax,%eiz,1),%esp
c0007656:	64 
c0007657:	65 21 00             	and    %eax,%gs:(%eax)
c000765a:	4e                   	dec    %esi
c000765b:	4d                   	dec    %ebp
c000765c:	0a 00                	or     (%eax),%al
c000765e:	4e                   	dec    %esi
c000765f:	6f                   	outsl  %ds:(%esi),(%dx)
c0007660:	20 6d 61             	and    %ch,0x61(%ebp)
c0007663:	74 68                	je     c00076cd <devPath+0x2c5>
c0007665:	20 63 6f             	and    %ah,0x6f(%ebx)
c0007668:	70 72                	jo     c00076dc <devPath+0x2d4>
c000766a:	6f                   	outsl  %ds:(%esi),(%dx)
c000766b:	63 65 73             	arpl   %sp,0x73(%ebp)
c000766e:	73 6f                	jae    c00076df <devPath+0x2d7>
c0007670:	72 00                	jb     c0007672 <devPath+0x26a>
c0007672:	44                   	inc    %esp
c0007673:	46                   	inc    %esi
c0007674:	0a 00                	or     (%eax),%al
c0007676:	44                   	inc    %esp
c0007677:	6f                   	outsl  %ds:(%esi),(%dx)
c0007678:	75 62                	jne    c00076dc <devPath+0x2d4>
c000767a:	6c                   	insb   (%dx),%es:(%edi)
c000767b:	65 20 66 61          	and    %ah,%gs:0x61(%esi)
c000767f:	75 6c                	jne    c00076ed <devPath+0x2e5>
c0007681:	74 00                	je     c0007683 <devPath+0x27b>
c0007683:	49                   	dec    %ecx
c0007684:	54                   	push   %esp
c0007685:	0a 00                	or     (%eax),%al
c0007687:	49                   	dec    %ecx
c0007688:	6e                   	outsb  %ds:(%esi),(%dx)
c0007689:	76 61                	jbe    c00076ec <devPath+0x2e4>
c000768b:	6c                   	insb   (%dx),%es:(%edi)
c000768c:	69 64 20 54 53 53 00 	imul   $0x46005353,0x54(%eax,%eiz,1),%esp
c0007693:	46 
c0007694:	46                   	inc    %esi
c0007695:	0a 00                	or     (%eax),%al
c0007697:	53                   	push   %ebx
c0007698:	74 61                	je     c00076fb <devPath+0x2f3>
c000769a:	63 6b 20             	arpl   %bp,0x20(%ebx)
c000769d:	6e                   	outsb  %ds:(%esi),(%dx)
c000769e:	6f                   	outsl  %ds:(%esi),(%dx)
c000769f:	74 20                	je     c00076c1 <devPath+0x2b9>
c00076a1:	70 72                	jo     c0007715 <devPath+0x30d>
c00076a3:	65                   	gs
c00076a4:	73 65                	jae    c000770b <devPath+0x303>
c00076a6:	6e                   	outsb  %ds:(%esi),(%dx)
c00076a7:	74 21                	je     c00076ca <devPath+0x2c2>
c00076a9:	00 53 46             	add    %dl,0x46(%ebx)
c00076ac:	0a 00                	or     (%eax),%al
c00076ae:	53                   	push   %ebx
c00076af:	74 61                	je     c0007712 <devPath+0x30a>
c00076b1:	63 6b 20             	arpl   %bp,0x20(%ebx)
c00076b4:	66 61                	popaw  
c00076b6:	75 6c                	jne    c0007724 <devPath+0x31c>
c00076b8:	74 21                	je     c00076db <devPath+0x2d3>
c00076ba:	00 47 50             	add    %al,0x50(%edi)
c00076bd:	0a 00                	or     (%eax),%al
c00076bf:	00 0a                	add    %cl,(%edx)
c00076c1:	47                   	inc    %edi
c00076c2:	65 6e                	outsb  %gs:(%esi),(%dx)
c00076c4:	65                   	gs
c00076c5:	72 61                	jb     c0007728 <devPath+0x320>
c00076c7:	6c                   	insb   (%dx),%es:(%edi)
c00076c8:	20 50 72             	and    %dl,0x72(%eax)
c00076cb:	6f                   	outsl  %ds:(%esi),(%dx)
c00076cc:	74 65                	je     c0007733 <devPath+0x32b>
c00076ce:	63 74 69 6f          	arpl   %si,0x6f(%ecx,%ebp,2)
c00076d2:	6e                   	outsb  %ds:(%esi),(%dx)
c00076d3:	20 46 61             	and    %al,0x61(%esi)
c00076d6:	75 6c                	jne    c0007744 <devPath+0x33c>
c00076d8:	74 0a                	je     c00076e4 <devPath+0x2dc>
c00076da:	65 69 70 09 63 73 09 	imul   $0x65097363,%gs:0x9(%eax),%esi
c00076e1:	65 
c00076e2:	66                   	data16
c00076e3:	6c                   	insb   (%dx),%es:(%edi)
c00076e4:	61                   	popa   
c00076e5:	67 73 09             	addr16 jae c00076f1 <devPath+0x2e9>
c00076e8:	70 72                	jo     c000775c <devPath+0x354>
c00076ea:	6f                   	outsl  %ds:(%esi),(%dx)
c00076eb:	63 65 73             	arpl   %sp,0x73(%ebp)
c00076ee:	70 09                	jo     c00076f9 <devPath+0x2f1>
c00076f0:	73 73                	jae    c0007765 <devPath+0x35d>
c00076f2:	0a 00                	or     (%eax),%al
c00076f4:	46                   	inc    %esi
c00076f5:	50                   	push   %eax
c00076f6:	0a 00                	or     (%eax),%al
c00076f8:	46                   	inc    %esi
c00076f9:	6c                   	insb   (%dx),%es:(%edi)
c00076fa:	6f                   	outsl  %ds:(%esi),(%dx)
c00076fb:	61                   	popa   
c00076fc:	74 69                	je     c0007767 <devPath+0x35f>
c00076fe:	6e                   	outsb  %ds:(%esi),(%dx)
c00076ff:	67 20 70 6f          	addr16 and %dh,0x6f(%bx,%si)
c0007703:	69 6e 74 20 65 78 63 	imul   $0x63786520,0x74(%esi),%ebp
c000770a:	65                   	gs
c000770b:	70 74                	jo     c0007781 <devPath+0x379>
c000770d:	69 6f 6e 00 41 4c 0a 	imul   $0xa4c4100,0x6e(%edi),%ebp
c0007714:	00 41 6c             	add    %al,0x6c(%ecx)
c0007717:	6c                   	insb   (%dx),%es:(%edi)
c0007718:	69 67 6e 65 64 20 65 	imul   $0x65206465,0x6e(%edi),%esp
c000771f:	78 63                	js     c0007784 <devPath+0x37c>
c0007721:	65                   	gs
c0007722:	70 74                	jo     c0007798 <devPath+0x390>
c0007724:	69 6f 6e 00 53 49 4d 	imul   $0x4d495300,0x6e(%edi),%ebp
c000772b:	44                   	inc    %esp
c000772c:	0a 00                	or     (%eax),%al
c000772e:	53                   	push   %ebx
c000772f:	53                   	push   %ebx
c0007730:	45                   	inc    %ebp
c0007731:	20 65 78             	and    %ah,0x78(%ebp)
c0007734:	63 65 70             	arpl   %sp,0x70(%ebp)
c0007737:	74 69                	je     c00077a2 <devPath+0x39a>
c0007739:	6f                   	outsl  %ds:(%esi),(%dx)
c000773a:	6e                   	outsb  %ds:(%esi),(%dx)
c000773b:	00 49 6e             	add    %cl,0x6e(%ecx)
c000773e:	69 74 69 7a 69 6e 67 	imul   $0x20676e69,0x7a(%ecx,%ebp,2),%esi
c0007745:	20 
c0007746:	56                   	push   %esi
c0007747:	47                   	inc    %edi
c0007748:	41                   	inc    %ecx
c0007749:	20 64 72 69          	and    %ah,0x69(%edx,%esi,2)
c000774d:	76 65                	jbe    c00077b4 <devPath+0x3ac>
c000774f:	72 20                	jb     c0007771 <devPath+0x369>
c0007751:	66 61                	popaw  
c0007753:	69 6c 65 64 21 00 59 	imul   $0x6f590021,0x64(%ebp,%eiz,2),%ebp
c000775a:	6f 
c000775b:	75 20                	jne    c000777d <devPath+0x375>
c000775d:	63 61 6e             	arpl   %sp,0x6e(%ecx)
c0007760:	20 6e 6f             	and    %ch,0x6f(%esi)
c0007763:	77 20                	ja     c0007785 <devPath+0x37d>
c0007765:	73 68                	jae    c00077cf <videoModes+0xf>
c0007767:	75 74                	jne    c00077dd <videoModes+0x1d>
c0007769:	64 6f                	outsl  %fs:(%esi),(%dx)
c000776b:	77 6e                	ja     c00077db <videoModes+0x1b>
c000776d:	20 79 6f             	and    %bh,0x6f(%ecx)
c0007770:	75 72                	jne    c00077e4 <videoModes+0x24>
c0007772:	20 50 43             	and    %dl,0x43(%eax)
c0007775:	0a 00                	or     (%eax),%al
c0007777:	00 57 61             	add    %dl,0x61(%edi)
c000777a:	72 6e                	jb     c00077ea <videoModes+0x2a>
c000777c:	69 6e 67 21 20 50 61 	imul   $0x61502021,0x67(%esi),%ebp
c0007783:	67 65 20 74 61       	addr16 and %dh,%gs:0x61(%si)
c0007788:	62 6c 65 73          	bound  %ebp,0x73(%ebp,%eiz,2)
c000778c:	20 68 61             	and    %ch,0x61(%eax)
c000778f:	76 65                	jbe    c00077f6 <videoModes+0x36>
c0007791:	6e                   	outsb  %ds:(%esi),(%dx)
c0007792:	27                   	daa    
c0007793:	74 20                	je     c00077b5 <devPath+0x3ad>
c0007795:	62 65 65             	bound  %esp,0x65(%ebp)
c0007798:	6e                   	outsb  %ds:(%esi),(%dx)
c0007799:	20 69 6d             	and    %ch,0x6d(%ecx)
c000779c:	70 6c                	jo     c000780a <videoModes+0x4a>
c000779e:	65                   	gs
c000779f:	6d                   	insl   (%dx),%es:(%edi)
c00077a0:	65 6e                	outsb  %gs:(%esi),(%dx)
c00077a2:	74 65                	je     c0007809 <videoModes+0x49>
c00077a4:	64 20 69 6e          	and    %ch,%fs:0x6e(%ecx)
c00077a8:	20 68 69             	and    %ch,0x69(%eax)
c00077ab:	67 68 20 6d 65 6d    	addr16 push $0x6d656d20
c00077b1:	6f                   	outsl  %ds:(%esi),(%dx)
c00077b2:	72 79                	jb     c000782d <width_320+0x2>
c00077b4:	20 79 65             	and    %bh,0x65(%ecx)
c00077b7:	74 21                	je     c00077da <videoModes+0x1a>
c00077b9:	0a 00                	or     (%eax),%al
c00077bb:	00 00                	add    %al,(%eax)
c00077bd:	00 00                	add    %al,(%eax)
	...

c00077c0 <videoModes>:
c00077c0:	40                   	inc    %eax
c00077c1:	01 00                	add    %eax,(%eax)
c00077c3:	00 c8                	add    %cl,%al
c00077c5:	00 00                	add    %al,(%eax)
c00077c7:	00 01                	add    %al,(%ecx)
c00077c9:	00 00                	add    %al,(%eax)
c00077cb:	00 01                	add    %al,(%ecx)
c00077cd:	00 00                	add    %al,(%eax)
c00077cf:	00 40 01             	add    %al,0x1(%eax)
c00077d2:	00 00                	add    %al,(%eax)
c00077d4:	c8 00 00 00          	enter  $0x0,$0x0
c00077d8:	01 00                	add    %eax,(%eax)
c00077da:	00 00                	add    %al,(%eax)
c00077dc:	00 00                	add    %al,(%eax)
c00077de:	00 00                	add    %al,(%eax)
c00077e0:	6b 61 6c 6c          	imul   $0x6c,0x6c(%ecx),%esp
c00077e4:	6f                   	outsl  %ds:(%esi),(%dx)
c00077e5:	63 28                	arpl   %bp,(%eax)
c00077e7:	25 69 29 20 72       	and    $0x72202969,%eax
c00077ec:	65                   	gs
c00077ed:	74 75                	je     c0007864 <height_240+0x5>
c00077ef:	72 6e                	jb     c000785f <height_240>
c00077f1:	65 64 20 4e 55       	and    %cl,%fs:%gs:0x55(%esi)
c00077f6:	4c                   	dec    %esp
c00077f7:	4c                   	dec    %esp
c00077f8:	21 0a                	and    %ecx,(%edx)
c00077fa:	00 00                	add    %al,(%eax)
c00077fc:	53                   	push   %ebx
c00077fd:	63 72 65             	arpl   %si,0x65(%edx)
c0007800:	65 6e                	outsb  %gs:(%esi),(%dx)
c0007802:	62 75 66             	bound  %esi,0x66(%ebp)
c0007805:	3a 20                	cmp    (%eax),%ah
c0007807:	25 58 0a 45 53       	and    $0x53450a58,%eax
c000780c:	50                   	push   %eax
c000780d:	3a 20                	cmp    (%eax),%ah
c000780f:	25 58 0a 56 61       	and    $0x61560a58,%eax
c0007814:	6c                   	insb   (%dx),%es:(%edi)
c0007815:	75 65                	jne    c000787c <height_300+0x5>
c0007817:	3a 20                	cmp    (%eax),%ah
c0007819:	25 58 0a 00 00       	and    $0xa58,%eax

c000781d <hor_regs>:
c000781d:	00 01                	add    %al,(%ecx)
c000781f:	02 03                	add    (%ebx),%al
c0007821:	04 05                	add    $0x5,%al
c0007823:	13 5f 3f             	adc    0x3f(%edi),%ebx

c0007824 <width_256>:
c0007824:	5f                   	pop    %edi
c0007825:	3f                   	aas    
c0007826:	40                   	inc    %eax
c0007827:	82                   	(bad)  
c0007828:	4a                   	dec    %edx
c0007829:	9a 20 5f 4f 50 82 54 	lcall  $0x5482,$0x504f5f20

c000782b <width_320>:
c000782b:	5f                   	pop    %edi
c000782c:	4f                   	dec    %edi
c000782d:	50                   	push   %eax
c000782e:	82                   	(bad)  
c000782f:	54                   	push   %esp
c0007830:	80 28 6b             	subb   $0x6b,(%eax)

c0007832 <width_360>:
c0007832:	6b 59 5a 8e          	imul   $0xffffff8e,0x5a(%ecx),%ebx
c0007836:	5e                   	pop    %esi
c0007837:	8a 2d 6e 5d 5e 91    	mov    0x915e5d6e,%ch

c0007839 <width_376>:
c0007839:	6e                   	outsb  %ds:(%esi),(%dx)
c000783a:	5d                   	pop    %ebp
c000783b:	5e                   	pop    %esi
c000783c:	91                   	xchg   %eax,%ecx
c000783d:	62 8f 2f 70 63 64    	bound  %ecx,0x6463702f(%edi)

c0007840 <width_400>:
c0007840:	70 63                	jo     c00078a5 <height_600+0x6>
c0007842:	64                   	fs
c0007843:	92                   	xchg   %eax,%edx
c0007844:	65                   	gs
c0007845:	82                   	(bad)  
c0007846:	32 06                	xor    (%esi),%al

c0007847 <ver_regs>:
c0007847:	06                   	push   %es
c0007848:	07                   	pop    %es
c0007849:	09 10                	or     %edx,(%eax)
c000784b:	11 12                	adc    %edx,(%edx)
c000784d:	15 16 bf 1f 41       	adc    $0x411fbf16,%eax

c000784f <height_200>:
c000784f:	bf 1f 41 9c 8e       	mov    $0x8e9c411f,%edi
c0007854:	8f                   	(bad)  
c0007855:	96                   	xchg   %eax,%esi
c0007856:	b9 0b 3e 41 da       	mov    $0xda413e0b,%ecx

c0007857 <height_224>:
c0007857:	0b 3e                	or     (%esi),%edi
c0007859:	41                   	inc    %ecx
c000785a:	da 9c bf c7 04 0d 3e 	ficompl 0x3e0d04c7(%edi,%edi,4)

c000785f <height_240>:
c000785f:	0d 3e 41 ea ac       	or     $0xacea413e,%eax
c0007864:	df e7                	(bad)  
c0007866:	06                   	push   %es

c0007867 <height_256>:
c0007867:	23 b2 61 0a ac ff    	and    -0x53f59f(%edx),%esi
c000786d:	07                   	pop    %es
c000786e:	1a 30                	sbb    (%eax),%dh

c000786f <height_270>:
c000786f:	30 f0                	xor    %dh,%al
c0007871:	61                   	popa   
c0007872:	20 a9 1b 1f 2f 70    	and    %ch,0x702f1f1b(%ecx)

c0007877 <height_300>:
c0007877:	70 f0                	jo     c0007869 <height_256+0x2>
c0007879:	61                   	popa   
c000787a:	5b                   	pop    %ebx
c000787b:	8c 57 58             	mov    %ss,0x58(%edi)
c000787e:	70 bf                	jo     c000783f <width_376+0x6>

c000787f <height_360>:
c000787f:	bf 1f 40 88 85       	mov    $0x8588401f,%edi
c0007884:	67 6d                	addr16 insl (%dx),%es:(%di)
c0007886:	ba bf 1f 40 9c       	mov    $0x9c401fbf,%edx

c0007887 <height_400>:
c0007887:	bf 1f 40 9c 8e       	mov    $0x8e9c401f,%edi
c000788c:	8f                   	(bad)  
c000788d:	96                   	xchg   %eax,%esi
c000788e:	b9 0d 3e 40 ea       	mov    $0xea403e0d,%ecx

c000788f <height_480>:
c000788f:	0d 3e 40 ea ac       	or     $0xacea403e,%eax
c0007894:	df e7                	(bad)  
c0007896:	06                   	push   %es

c0007897 <height_564>:
c0007897:	62                   	(bad)  
c0007898:	f0 60                	lock pusha 
c000789a:	37                   	aaa    
c000789b:	89 33                	mov    %esi,(%ebx)
c000789d:	3c 5c                	cmp    $0x5c,%al

c000789f <height_600>:
c000789f:	70 f0                	jo     c0007891 <height_480+0x2>
c00078a1:	60                   	pusha  
c00078a2:	5b                   	pop    %ebx
c00078a3:	8c 57 58             	mov    %ss,0x58(%edi)
c00078a6:	70 00                	jo     c00078a8 <height_600+0x9>
c00078a8:	50                   	push   %eax
c00078a9:	72 6f                	jb     c000791a <height_600+0x7b>
c00078ab:	67 72 61             	addr16 jb c000790f <height_600+0x70>
c00078ae:	6d                   	insl   (%dx),%es:(%edi)
c00078af:	20 68 65             	and    %ch,0x65(%eax)
c00078b2:	61                   	popa   
c00078b3:	64                   	fs
c00078b4:	65                   	gs
c00078b5:	72 0a                	jb     c00078c1 <height_600+0x22>
c00078b7:	00 54 79 70          	add    %dl,0x70(%ecx,%edi,2)
c00078bb:	65 3a 09             	cmp    %gs:(%ecx),%cl
c00078be:	30 78 25             	xor    %bh,0x25(%eax)
c00078c1:	58                   	pop    %eax
c00078c2:	09 4f 66             	or     %ecx,0x66(%edi)
c00078c5:	66                   	data16
c00078c6:	73 65                	jae    c000792d <height_600+0x8e>
c00078c8:	74 3a                	je     c0007904 <height_600+0x65>
c00078ca:	09 30                	or     %esi,(%eax)
c00078cc:	78 25                	js     c00078f3 <height_600+0x54>
c00078ce:	58                   	pop    %eax
c00078cf:	0a 76 61             	or     0x61(%esi),%dh
c00078d2:	64                   	fs
c00078d3:	64                   	fs
c00078d4:	72 3a                	jb     c0007910 <height_600+0x71>
c00078d6:	09 30                	or     %esi,(%eax)
c00078d8:	78 25                	js     c00078ff <height_600+0x60>
c00078da:	58                   	pop    %eax
c00078db:	09 53 69             	or     %edx,0x69(%ebx)
c00078de:	7a 65                	jp     c0007945 <height_600+0xa6>
c00078e0:	3a 09                	cmp    (%ecx),%cl
c00078e2:	30 78 25             	xor    %bh,0x25(%eax)
c00078e5:	58                   	pop    %eax
c00078e6:	0a 41 6c             	or     0x6c(%ecx),%al
c00078e9:	69 67 6e 3a 09 30 78 	imul   $0x7830093a,0x6e(%edi),%esp
c00078f0:	25 58 09 46 6c       	and    $0x6c460958,%eax
c00078f5:	61                   	popa   
c00078f6:	67 73 3a             	addr16 jae c0007933 <height_600+0x94>
c00078f9:	09 30                	or     %esi,(%eax)
c00078fb:	78 25                	js     c0007922 <height_600+0x83>
c00078fd:	58                   	pop    %eax
c00078fe:	0a 0a                	or     (%edx),%cl
c0007900:	00 00                	add    %al,(%eax)
c0007902:	00 00                	add    %al,(%eax)
c0007904:	41                   	inc    %ecx
c0007905:	69 65 65 65 21 20 46 	imul   $0x46202165,0x65(%ebp),%esp
c000790c:	69 6c 65 20 73 79 73 	imul   $0x74737973,0x20(%ebp,%eiz,2),%ebp
c0007913:	74 
c0007914:	65                   	gs
c0007915:	6d                   	insl   (%dx),%es:(%edi)
c0007916:	20 6e 6f             	and    %ch,0x6f(%esi)
c0007919:	74 20                	je     c000793b <height_600+0x9c>
c000791b:	69 6d 70 6c 65 6d 65 	imul   $0x656d656c,0x70(%ebp),%ebp
c0007922:	6e                   	outsb  %ds:(%esi),(%dx)
c0007923:	74 65                	je     c000798a <height_600+0xeb>
c0007925:	64 21 00             	and    %eax,%fs:(%eax)
	...
c0007930:	11 2d 44 54 fb 21    	adc    %ebp,0x21fb5444
c0007936:	09 40 11             	or     %eax,0x11(%eax)
c0007939:	2d 44 54 fb 21       	sub    $0x21fb5444,%eax
c000793e:	19 40 00             	sbb    %eax,0x0(%eax)
c0007941:	88 68 21             	mov    %ch,0x21(%eax)
c0007944:	a2 da 0f c9 01       	mov    %al,0x1c90fda
c0007949:	40                   	inc    %eax
c000794a:	00 00                	add    %al,(%eax)
c000794c:	48                   	dec    %eax
c000794d:	65                   	gs
c000794e:	61                   	popa   
c000794f:	64 0a 30             	or     %fs:(%eax),%dh
c0007952:	78 25                	js     c0007979 <height_600+0xda>
c0007954:	58                   	pop    %eax
c0007955:	0a 00                	or     (%eax),%al
c0007957:	6e                   	outsb  %ds:(%esi),(%dx)
c0007958:	6f                   	outsl  %ds:(%esi),(%dx)
c0007959:	64 65 3a 20          	cmp    %fs:%gs:(%eax),%ah
c000795d:	30 78 25             	xor    %bh,0x25(%eax)
c0007960:	58                   	pop    %eax
c0007961:	09 73 69             	or     %esi,0x69(%ebx)
c0007964:	7a 65                	jp     c00079cb <height_600+0x12c>
c0007966:	3a 20                	cmp    (%eax),%ah
c0007968:	30 78 25             	xor    %bh,0x25(%eax)
c000796b:	58                   	pop    %eax
c000796c:	0a 00                	or     (%eax),%al
c000796e:	00 00                	add    %al,(%eax)
c0007970:	41                   	inc    %ecx
c0007971:	6c                   	insb   (%dx),%es:(%edi)
c0007972:	6c                   	insb   (%dx),%es:(%edi)
c0007973:	6f                   	outsl  %ds:(%esi),(%dx)
c0007974:	63 61 74             	arpl   %sp,0x74(%ecx)
c0007977:	69 6f 6e 20 61 74 20 	imul   $0x20746120,0x6e(%edi),%ebp
c000797e:	65 6e                	outsb  %gs:(%esi),(%dx)
c0007980:	64 20 6f 66          	and    %ch,%fs:0x66(%edi)
c0007984:	20 6c 69 73          	and    %ch,0x73(%ecx,%ebp,2)
c0007988:	74 21                	je     c00079ab <height_600+0x10c>
c000798a:	0a 62 6c             	or     0x6c(%edx),%ah
c000798d:	6f                   	outsl  %ds:(%esi),(%dx)
c000798e:	63 6b 73             	arpl   %bp,0x73(%ebx)
c0007991:	3a 20                	cmp    (%eax),%ah
c0007993:	25 58 09 43 61       	and    $0x61430958,%eax
c0007998:	72 72                	jb     c0007a0c <height_600+0x16d>
c000799a:	69 67 65 3a 20 25 58 	imul   $0x5825203a,0x65(%edi),%esp
c00079a1:	09 6e 65             	or     %ebp,0x65(%esi)
c00079a4:	78 74                	js     c0007a1a <height_600+0x17b>
c00079a6:	3a 20                	cmp    (%eax),%ah
c00079a8:	25 58 0a 00 4c       	and    $0x4c000a58,%eax
c00079ad:	6f                   	outsl  %ds:(%esi),(%dx)
c00079ae:	6f                   	outsl  %ds:(%esi),(%dx)
c00079af:	70 20                	jo     c00079d1 <height_600+0x132>
c00079b1:	69 6e 20 6c 69 73 74 	imul   $0x7473696c,0x20(%esi),%ebp
c00079b8:	21 0a                	and    %ecx,(%edx)
c00079ba:	00 4d 65             	add    %cl,0x65(%ebp)
c00079bd:	72 67                	jb     c0007a26 <height_600+0x187>
c00079bf:	65 20 66 61          	and    %ah,%gs:0x61(%esi)
c00079c3:	69 6c 65 64 0a 00 4c 	imul   $0x6f4c000a,0x64(%ebp,%eiz,2),%ebp
c00079ca:	6f 
c00079cb:	63 6b 20             	arpl   %bp,0x20(%ebx)
c00079ce:	73 74                	jae    c0007a44 <height_600+0x1a5>
c00079d0:	61                   	popa   
c00079d1:	74 65                	je     c0007a38 <height_600+0x199>
c00079d3:	3a 20                	cmp    (%eax),%ah
c00079d5:	25 58 0a 00 41       	and    $0x41000a58,%eax
c00079da:	49                   	dec    %ecx
c00079db:	45                   	inc    %ebp
c00079dc:	45                   	inc    %ebp
c00079dd:	2c 20                	sub    $0x20,%al
c00079df:	4f                   	dec    %edi
c00079e0:	55                   	push   %ebp
c00079e1:	54                   	push   %esp
c00079e2:	20 4f 46             	and    %cl,0x46(%edi)
c00079e5:	20 4d 45             	and    %cl,0x45(%ebp)
c00079e8:	4d                   	dec    %ebp
c00079e9:	4f                   	dec    %edi
c00079ea:	52                   	push   %edx
c00079eb:	59                   	pop    %ecx
c00079ec:	21 0a                	and    %ecx,(%edx)
c00079ee:	00 00                	add    %al,(%eax)
c00079f0:	50                   	push   %eax
c00079f1:	47                   	inc    %edi
c00079f2:	0a 00                	or     (%eax),%al
c00079f4:	50                   	push   %eax
c00079f5:	61                   	popa   
c00079f6:	67                   	addr16
c00079f7:	65                   	gs
c00079f8:	66 61                	popaw  
c00079fa:	75 6c                	jne    c0007a68 <height_600+0x1c9>
c00079fc:	74 3a                	je     c0007a38 <height_600+0x199>
c00079fe:	20 25 58 0a 00 53    	and    %ah,0x53000a58
c0007a04:	74 6f                	je     c0007a75 <height_600+0x1d6>
c0007a06:	70 70                	jo     c0007a78 <height_600+0x1d9>
c0007a08:	69 6e 67 20 68 65 72 	imul   $0x72656820,0x67(%esi),%ebp
c0007a0f:	65 21 00             	and    %eax,%gs:(%eax)
c0007a12:	49                   	dec    %ecx
c0007a13:	6e                   	outsb  %ds:(%esi),(%dx)
c0007a14:	63 6f 72             	arpl   %bp,0x72(%edi)
c0007a17:	72 65                	jb     c0007a7e <height_600+0x1df>
c0007a19:	63 74 20 66          	arpl   %si,0x66(%eax,%eiz,1)
c0007a1d:	72 61                	jb     c0007a80 <height_600+0x1e1>
c0007a1f:	6d                   	insl   (%dx),%es:(%edi)
c0007a20:	65 00 00             	add    %al,%gs:(%eax)
c0007a23:	00 54 68 65          	add    %dl,0x65(%eax,%ebp,2)
c0007a27:	20 70 61             	and    %dh,0x61(%eax)
c0007a2a:	67                   	addr16
c0007a2b:	65                   	gs
c0007a2c:	66 61                	popaw  
c0007a2e:	75 6c                	jne    c0007a9c <height_600+0x1fd>
c0007a30:	74 20                	je     c0007a52 <height_600+0x1b3>
c0007a32:	77 61                	ja     c0007a95 <height_600+0x1f6>
c0007a34:	73 20                	jae    c0007a56 <height_600+0x1b7>
c0007a36:	63 61 75             	arpl   %sp,0x75(%ecx)
c0007a39:	73 65                	jae    c0007aa0 <height_600+0x201>
c0007a3b:	64 20 62 79          	and    %ah,%fs:0x79(%edx)
c0007a3f:	3a 20                	cmp    (%eax),%ah
c0007a41:	25 58 0a 00 41       	and    $0x41000a58,%eax
c0007a46:	20 72 65             	and    %dh,0x65(%edx)
c0007a49:	73 65                	jae    c0007ab0 <height_600+0x211>
c0007a4b:	72 76                	jb     c0007ac3 <height_600+0x224>
c0007a4d:	65 64 20 62 69       	and    %ah,%fs:%gs:0x69(%edx)
c0007a52:	74 20                	je     c0007a74 <height_600+0x1d5>
c0007a54:	77 61                	ja     c0007ab7 <height_600+0x218>
c0007a56:	73 20                	jae    c0007a78 <height_600+0x1d9>
c0007a58:	73 65                	jae    c0007abf <height_600+0x220>
c0007a5a:	74 21                	je     c0007a7d <height_600+0x1de>
c0007a5c:	00 55 73             	add    %dl,0x73(%ebp)
c0007a5f:	65                   	gs
c0007a60:	72 20                	jb     c0007a82 <height_600+0x1e3>
c0007a62:	6d                   	insl   (%dx),%es:(%edi)
c0007a63:	6f                   	outsl  %ds:(%esi),(%dx)
c0007a64:	64 65 20 6e 6f       	and    %ch,%fs:%gs:0x6f(%esi)
c0007a69:	74 20                	je     c0007a8b <height_600+0x1ec>
c0007a6b:	61                   	popa   
c0007a6c:	6c                   	insb   (%dx),%es:(%edi)
c0007a6d:	6c                   	insb   (%dx),%es:(%edi)
c0007a6e:	6f                   	outsl  %ds:(%esi),(%dx)
c0007a6f:	77 65                	ja     c0007ad6 <height_600+0x237>
c0007a71:	64 20 79 65          	and    %bh,%fs:0x65(%ecx)
c0007a75:	74 21                	je     c0007a98 <height_600+0x1f9>
c0007a77:	00 4e 6f             	add    %cl,0x6f(%esi)
c0007a7a:	20 6d 6f             	and    %ch,0x6f(%ebp)
c0007a7d:	72 65                	jb     c0007ae4 <height_600+0x245>
c0007a7f:	20 66 72             	and    %ah,0x72(%esi)
c0007a82:	65 65 20 6d 65       	and    %ch,%gs:0x65(%ebp)
c0007a87:	6d                   	insl   (%dx),%es:(%edi)
c0007a88:	6f                   	outsl  %ds:(%esi),(%dx)
c0007a89:	72 79                	jb     c0007b04 <height_600+0x265>
c0007a8b:	21 00                	and    %eax,(%eax)
c0007a8d:	00 00                	add    %al,(%eax)
c0007a8f:	00 53 65             	add    %dl,0x65(%ebx)
c0007a92:	74 74                	je     c0007b08 <height_600+0x269>
c0007a94:	69 6e 67 20 74 68 65 	imul   $0x65687420,0x67(%esi),%ebp
c0007a9b:	20 70 61             	and    %dh,0x61(%eax)
c0007a9e:	67 65 20 66 61       	addr16 and %ah,%gs:0x61(%bp)
c0007aa3:	69 6c 65 64 20 64 72 	imul   $0x61726420,0x64(%ebp,%eiz,2),%ebp
c0007aaa:	61 
c0007aab:	6d                   	insl   (%dx),%es:(%edi)
c0007aac:	61                   	popa   
c0007aad:	74 69                	je     c0007b18 <height_600+0x279>
c0007aaf:	63 61 6c             	arpl   %sp,0x6c(%ecx)
c0007ab2:	6c                   	insb   (%dx),%es:(%edi)
c0007ab3:	79 21                	jns    c0007ad6 <height_600+0x237>
c0007ab5:	00 00                	add    %al,(%eax)
c0007ab7:	00 54 72 79          	add    %dl,0x79(%edx,%esi,2)
c0007abb:	69 6e 67 20 74 6f 20 	imul   $0x206f7420,0x67(%esi),%ebp
c0007ac2:	65                   	gs
c0007ac3:	78 65                	js     c0007b2a <height_600+0x28b>
c0007ac5:	63 75 74             	arpl   %si,0x74(%ebp)
c0007ac8:	65 20 61 6e          	and    %ah,%gs:0x6e(%ecx)
c0007acc:	20 69 6e             	and    %ch,0x6e(%ecx)
c0007acf:	76 61                	jbe    c0007b32 <height_600+0x293>
c0007ad1:	6c                   	insb   (%dx),%es:(%edi)
c0007ad2:	69 64 20 6c 6f 63 61 	imul   $0x7461636f,0x6c(%eax,%eiz,1),%esp
c0007ad9:	74 
c0007ada:	69 6f 6e 20 69 6e 20 	imul   $0x206e6920,0x6e(%edi),%ebp
c0007ae1:	6d                   	insl   (%dx),%es:(%edi)
c0007ae2:	65                   	gs
c0007ae3:	6d                   	insl   (%dx),%es:(%edi)
c0007ae4:	6f                   	outsl  %ds:(%esi),(%dx)
c0007ae5:	72 79                	jb     c0007b60 <height_600+0x2c1>
c0007ae7:	0a 00                	or     (%eax),%al
c0007ae9:	54                   	push   %esp
c0007aea:	68 65 20 61 74       	push   $0x74612065
c0007aef:	74 65                	je     c0007b56 <height_600+0x2b7>
c0007af1:	6d                   	insl   (%dx),%es:(%edi)
c0007af2:	70 74                	jo     c0007b68 <height_600+0x2c9>
c0007af4:	65 64 20 61 64       	and    %ah,%fs:%gs:0x64(%ecx)
c0007af9:	64                   	fs
c0007afa:	72 65                	jb     c0007b61 <height_600+0x2c2>
c0007afc:	73 73                	jae    c0007b71 <height_600+0x2d2>
c0007afe:	3a 20                	cmp    (%eax),%ah
c0007b00:	30 78 25             	xor    %bh,0x25(%eax)
c0007b03:	58                   	pop    %eax
c0007b04:	0a 00                	or     (%eax),%al
c0007b06:	52                   	push   %edx
c0007b07:	65                   	gs
c0007b08:	61                   	popa   
c0007b09:	64 69 6e 67 20 6e 6f 	imul   $0x6e6f6e20,%fs:0x67(%esi),%ebp
c0007b10:	6e 
c0007b11:	20 65 78             	and    %ah,0x78(%ebp)
c0007b14:	69 73 74 65 6e 74 20 	imul   $0x20746e65,0x74(%ebx),%esi
c0007b1b:	70 61                	jo     c0007b7e <height_600+0x2df>
c0007b1d:	67 65 00 41 63       	addr16 add %al,%gs:0x63(%bx,%di)
c0007b22:	63 65 73             	arpl   %sp,0x73(%ebp)
c0007b25:	73 69                	jae    c0007b90 <height_600+0x2f1>
c0007b27:	6e                   	outsb  %ds:(%esi),(%dx)
c0007b28:	67 20 69 6c          	addr16 and %ch,0x6c(%bx,%di)
c0007b2c:	6c                   	insb   (%dx),%es:(%edi)
c0007b2d:	69 63 69 74 20 63 6f 	imul   $0x6f632074,0x69(%ebx),%esp
c0007b34:	6e                   	outsb  %ds:(%esi),(%dx)
c0007b35:	74 65                	je     c0007b9c <height_600+0x2fd>
c0007b37:	6e                   	outsb  %ds:(%esi),(%dx)
c0007b38:	74 21                	je     c0007b5b <height_600+0x2bc>
c0007b3a:	00 41 69             	add    %al,0x69(%ecx)
c0007b3d:	65                   	gs
c0007b3e:	65                   	gs
c0007b3f:	65                   	gs
c0007b40:	2c 20                	sub    $0x20,%al
c0007b42:	4e                   	dec    %esi
c0007b43:	75 6c                	jne    c0007bb1 <height_600+0x312>
c0007b45:	6c                   	insb   (%dx),%es:(%edi)
c0007b46:	20 70 6f             	and    %dh,0x6f(%eax)
c0007b49:	69 6e 74 65 72 21 21 	imul   $0x21217265,0x74(%esi),%ebp
c0007b50:	21 20                	and    %esp,(%eax)
c0007b52:	50                   	push   %eax
c0007b53:	61                   	popa   
c0007b54:	67 69 6e 67 00 49 74 	addr16 imul $0x74744900,0x67(%bp),%ebp
c0007b5b:	74 
c0007b5c:	65                   	gs
c0007b5d:	72 61                	jb     c0007bc0 <height_600+0x321>
c0007b5f:	74 69                	je     c0007bca <height_600+0x32b>
c0007b61:	6f                   	outsl  %ds:(%esi),(%dx)
c0007b62:	6e                   	outsb  %ds:(%esi),(%dx)
c0007b63:	20 25 58 0a 00 41    	and    %ah,0x41000a58
c0007b69:	69 65 65 2c 20 4e 75 	imul   $0x754e202c,0x65(%ebp),%esp
c0007b70:	6c                   	insb   (%dx),%es:(%edi)
c0007b71:	6c                   	insb   (%dx),%es:(%edi)
c0007b72:	20 70 6f             	and    %dh,0x6f(%eax)
c0007b75:	69 6e 74 65 72 21 21 	imul   $0x21217265,0x74(%esi),%ebp
c0007b7c:	21 20                	and    %esp,(%eax)
c0007b7e:	50                   	push   %eax
c0007b7f:	61                   	popa   
c0007b80:	67                   	addr16
c0007b81:	65                   	gs
c0007b82:	54                   	push   %esp
c0007b83:	61                   	popa   
c0007b84:	62 6c 65 00          	bound  %ebp,0x0(%ebp,%eiz,2)
c0007b88:	41                   	inc    %ecx
c0007b89:	6e                   	outsb  %ds:(%esi),(%dx)
c0007b8a:	64                   	fs
c0007b8b:	72 6f                	jb     c0007bfc <height_600+0x35d>
c0007b8d:	6d                   	insl   (%dx),%es:(%edi)
c0007b8e:	65                   	gs
c0007b8f:	64                   	fs
c0007b90:	61                   	popa   
c0007b91:	20 70 61             	and    %dh,0x61(%eax)
c0007b94:	6e                   	outsb  %ds:(%esi),(%dx)
c0007b95:	69 63 21 0a 25 73 0a 	imul   $0xa73250a,0x21(%ebx),%esp
	...
c0007ba4:	00 00                	add    %al,(%eax)
c0007ba6:	24 40                	and    $0x40,%al
c0007ba8:	70 72                	jo     c0007c1c <height_600+0x37d>
c0007baa:	6f                   	outsl  %ds:(%esi),(%dx)
c0007bab:	63 00                	arpl   %ax,(%eax)
c0007bad:	64                   	fs
c0007bae:	65                   	gs
c0007baf:	76 00                	jbe    c0007bb1 <height_600+0x312>
c0007bb1:	00 00                	add    %al,(%eax)
c0007bb3:	00 57 41             	add    %dl,0x41(%edi)
c0007bb6:	52                   	push   %edx
c0007bb7:	4e                   	dec    %esi
c0007bb8:	49                   	dec    %ecx
c0007bb9:	4e                   	dec    %esi
c0007bba:	47                   	inc    %edi
c0007bbb:	3a 20                	cmp    (%eax),%ah
c0007bbd:	46                   	inc    %esi
c0007bbe:	69 6c 65 20 73 79 73 	imul   $0x74737973,0x20(%ebp,%eiz,2),%ebp
c0007bc5:	74 
c0007bc6:	65                   	gs
c0007bc7:	6d                   	insl   (%dx),%es:(%edi)
c0007bc8:	73 20                	jae    c0007bea <height_600+0x34b>
c0007bca:	6e                   	outsb  %ds:(%esi),(%dx)
c0007bcb:	6f                   	outsl  %ds:(%esi),(%dx)
c0007bcc:	74 20                	je     c0007bee <height_600+0x34f>
c0007bce:	63 6f 6d             	arpl   %bp,0x6d(%edi)
c0007bd1:	70 6c                	jo     c0007c3f <height_600+0x3a0>
c0007bd3:	65                   	gs
c0007bd4:	74 65                	je     c0007c3b <height_600+0x39c>
c0007bd6:	21 0a                	and    %ecx,(%edx)
c0007bd8:	00 52 6f             	add    %dl,0x6f(%edx)
c0007bdb:	6f                   	outsl  %ds:(%esi),(%dx)
c0007bdc:	74 20                	je     c0007bfe <height_600+0x35f>
c0007bde:	73 69                	jae    c0007c49 <height_600+0x3aa>
c0007be0:	7a 65                	jp     c0007c47 <height_600+0x3a8>
c0007be2:	3a 20                	cmp    (%eax),%ah
c0007be4:	25 69 0a 00 46       	and    $0x46000a69,%eax
c0007be9:	69 6c 65 20 73 79 73 	imul   $0x74737973,0x20(%ebp,%eiz,2),%ebp
c0007bf0:	74 
c0007bf1:	65                   	gs
c0007bf2:	6d                   	insl   (%dx),%es:(%edi)
c0007bf3:	73 20                	jae    c0007c15 <height_600+0x376>
c0007bf5:	6e                   	outsb  %ds:(%esi),(%dx)
c0007bf6:	6f                   	outsl  %ds:(%esi),(%dx)
c0007bf7:	74 20                	je     c0007c19 <height_600+0x37a>
c0007bf9:	79 65                	jns    c0007c60 <height_600+0x3c1>
c0007bfb:	74 20                	je     c0007c1d <height_600+0x37e>
c0007bfd:	73 75                	jae    c0007c74 <height_600+0x3d5>
c0007bff:	70 70                	jo     c0007c71 <height_600+0x3d2>
c0007c01:	6f                   	outsl  %ds:(%esi),(%dx)
c0007c02:	72 74                	jb     c0007c78 <height_600+0x3d9>
c0007c04:	65 64 21 00          	and    %eax,%fs:%gs:(%eax)
c0007c08:	4e                   	dec    %esi
c0007c09:	6f                   	outsl  %ds:(%esi),(%dx)
c0007c0a:	74 20                	je     c0007c2c <height_600+0x38d>
c0007c0c:	65 6e                	outsb  %gs:(%esi),(%dx)
c0007c0e:	6f                   	outsl  %ds:(%esi),(%dx)
c0007c0f:	75 67                	jne    c0007c78 <height_600+0x3d9>
c0007c11:	68 20 6d 65 6d       	push   $0x6d656d20
c0007c16:	6f                   	outsl  %ds:(%esi),(%dx)
c0007c17:	72 79                	jb     c0007c92 <height_600+0x3f3>
c0007c19:	20 69 6e             	and    %ch,0x6e(%ecx)
c0007c1c:	20 66 73             	and    %ah,0x73(%esi)
c0007c1f:	49                   	dec    %ecx
c0007c20:	6e                   	outsb  %ds:(%esi),(%dx)
c0007c21:	69 74 21 00 4e 6f 74 	imul   $0x20746f4e,0x0(%ecx,%eiz,1),%esi
c0007c28:	20 
c0007c29:	65 6e                	outsb  %gs:(%esi),(%dx)
c0007c2b:	6f                   	outsl  %ds:(%esi),(%dx)
c0007c2c:	75 67                	jne    c0007c95 <height_600+0x3f6>
c0007c2e:	68 20 6d 65 6d       	push   $0x6d656d20
c0007c33:	6f                   	outsl  %ds:(%esi),(%dx)
c0007c34:	72 79                	jb     c0007caf <height_600+0x410>
c0007c36:	20 69 6e             	and    %ch,0x6e(%ecx)
c0007c39:	20 6d 6b             	and    %ch,0x6b(%ebp)
c0007c3c:	64 69 72 00 55 6e 62 	imul   $0x75626e55,%fs:0x0(%edx),%esi
c0007c43:	75 
c0007c44:	66                   	data16
c0007c45:	66                   	data16
c0007c46:	65                   	gs
c0007c47:	72 65                	jb     c0007cae <height_600+0x40f>
c0007c49:	64 20 66 69          	and    %ah,%fs:0x69(%esi)
c0007c4d:	6c                   	insb   (%dx),%es:(%edi)
c0007c4e:	65                   	gs
c0007c4f:	73 20                	jae    c0007c71 <height_600+0x3d2>
c0007c51:	6e                   	outsb  %ds:(%esi),(%dx)
c0007c52:	6f                   	outsl  %ds:(%esi),(%dx)
c0007c53:	74 20                	je     c0007c75 <height_600+0x3d6>
c0007c55:	73 75                	jae    c0007ccc <height_600+0x42d>
c0007c57:	70 70                	jo     c0007cc9 <height_600+0x42a>
c0007c59:	6f                   	outsl  %ds:(%esi),(%dx)
c0007c5a:	72 74                	jb     c0007cd0 <height_600+0x431>
c0007c5c:	65 64 20 79 65       	and    %bh,%fs:%gs:0x65(%ecx)
c0007c61:	74 21                	je     c0007c84 <height_600+0x3e5>
c0007c63:	00 55 6e             	add    %dl,0x6e(%ebp)
c0007c66:	69 6e 69 74 69 61 6c 	imul   $0x6c616974,0x69(%esi),%ebp
c0007c6d:	69 73 65 64 20 64 69 	imul   $0x69642064,0x65(%ebx),%esi
c0007c74:	72 74                	jb     c0007cea <height_600+0x44b>
c0007c76:	79 20                	jns    c0007c98 <height_600+0x3f9>
c0007c78:	66 69 6c 65 21 21 21 	imul   $0x2121,0x21(%ebp,%eiz,2),%bp
c0007c7f:	00 66 70             	add    %ah,0x70(%esi)
c0007c82:	20 73 69             	and    %dh,0x69(%ebx)
c0007c85:	7a 65                	jp     c0007cec <height_600+0x44d>
c0007c87:	20 25 69 0a 00 54    	and    %ah,0x54000a69
c0007c8d:	6f                   	outsl  %ds:(%esi),(%dx)
c0007c8e:	20 61 64             	and    %ah,0x64(%ecx)
c0007c91:	64 3a 20             	cmp    %fs:(%eax),%ah
c0007c94:	25 69 0a 00 45       	and    $0x45000a69,%eax
c0007c99:	6e                   	outsb  %ds:(%esi),(%dx)
c0007c9a:	74 72                	je     c0007d0e <height_600+0x46f>
c0007c9c:	69 65 73 3a 20 25 58 	imul   $0x5825203a,0x73(%ebp),%esp
c0007ca3:	0a 00                	or     (%eax),%al
c0007ca5:	45                   	inc    %ebp
c0007ca6:	6e                   	outsb  %ds:(%esi),(%dx)
c0007ca7:	74 72                	je     c0007d1b <height_600+0x47c>
c0007ca9:	69 65 73 2e 6e 61 6d 	imul   $0x6d616e2e,0x73(%ebp),%esp
c0007cb0:	65 3a 20             	cmp    %gs:(%eax),%ah
c0007cb3:	25 58 0a 00 25       	and    $0x25000a58,%eax
c0007cb8:	69 20 44 69 72 65    	imul   $0x65726944,(%eax),%esp
c0007cbe:	63 74 6f 72          	arpl   %si,0x72(%edi,%ebp,2)
c0007cc2:	79 20                	jns    c0007ce4 <height_600+0x445>
c0007cc4:	65 6e                	outsb  %gs:(%esi),(%dx)
c0007cc6:	74 72                	je     c0007d3a <height_600+0x49b>
c0007cc8:	69 65 73 0a 00 25 73 	imul   $0x7325000a,0x73(%ebp),%esp
c0007ccf:	0a 00                	or     (%eax),%al
c0007cd1:	00 00                	add    %al,(%eax)
c0007cd3:	00 57 61             	add    %dl,0x61(%edi)
c0007cd6:	72 6e                	jb     c0007d46 <height_600+0x4a7>
c0007cd8:	69 6e 67 21 20 46 69 	imul   $0x69462021,0x67(%esi),%ebp
c0007cdf:	6c                   	insb   (%dx),%es:(%edi)
c0007ce0:	65                   	gs
c0007ce1:	73 20                	jae    c0007d03 <height_600+0x464>
c0007ce3:	63 61 6e             	arpl   %sp,0x6e(%ecx)
c0007ce6:	27                   	daa    
c0007ce7:	74 20                	je     c0007d09 <height_600+0x46a>
c0007ce9:	62 65 20             	bound  %esp,0x20(%ebp)
c0007cec:	6f                   	outsl  %ds:(%esi),(%dx)
c0007ced:	70 65                	jo     c0007d54 <height_600+0x4b5>
c0007cef:	6e                   	outsb  %ds:(%esi),(%dx)
c0007cf0:	65 64 20 79 65       	and    %bh,%fs:%gs:0x65(%ecx)
c0007cf5:	74 21                	je     c0007d18 <height_600+0x479>
c0007cf7:	0a 00                	or     (%eax),%al
c0007cf9:	00 00                	add    %al,(%eax)
c0007cfb:	00 57 61             	add    %dl,0x61(%edi)
c0007cfe:	72 69                	jb     c0007d69 <height_600+0x4ca>
c0007d00:	6e                   	outsb  %ds:(%esi),(%dx)
c0007d01:	69 6e 67 21 20 46 69 	imul   $0x69462021,0x67(%esi),%ebp
c0007d08:	6c                   	insb   (%dx),%es:(%edi)
c0007d09:	65 20 62 75          	and    %ah,%gs:0x75(%edx)
c0007d0d:	66                   	data16
c0007d0e:	66                   	data16
c0007d0f:	65                   	gs
c0007d10:	72 73                	jb     c0007d85 <height_600+0x4e6>
c0007d12:	20 63 61             	and    %ah,0x61(%ebx)
c0007d15:	6e                   	outsb  %ds:(%esi),(%dx)
c0007d16:	27                   	daa    
c0007d17:	74 20                	je     c0007d39 <height_600+0x49a>
c0007d19:	62 65 20             	bound  %esp,0x20(%ebp)
c0007d1c:	73 79                	jae    c0007d97 <height_600+0x4f8>
c0007d1e:	6e                   	outsb  %ds:(%esi),(%dx)
c0007d1f:	63 68 72             	arpl   %bp,0x72(%eax)
c0007d22:	6f                   	outsl  %ds:(%esi),(%dx)
c0007d23:	6e                   	outsb  %ds:(%esi),(%dx)
c0007d24:	69 73 65 64 20 79 65 	imul   $0x65792064,0x65(%ebx),%esi
c0007d2b:	74 21                	je     c0007d4e <height_600+0x4af>
c0007d2d:	0a 00                	or     (%eax),%al
	...

Disassembly of section .bss:

c0008000 <GDT>:
c0008000:	00 00                	add    %al,(%eax)
	...

c0008004 <pic>:
c0008004:	00 00                	add    %al,(%eax)
	...

c0008008 <sentinels>:
	...

c0008009 <signals>:
c0008009:	00 00                	add    %al,(%eax)
	...

c000800c <scheduling>:
c000800c:	00 00                	add    %al,(%eax)
	...

c0008010 <blocks>:
c0008010:	00 00                	add    %al,(%eax)
	...

c0008014 <pageLock>:
c0008014:	00 00                	add    %al,(%eax)
	...

c0008018 <pageDbg>:
c0008018:	00 00                	add    %al,(%eax)
	...

c000801c <_fs_root>:
	...

c0009000 <table>:
	...

c0009020 <stack>:
	...

c0019020 <stub>:
	...

c001d020 <screenbuf>:
c001d020:	00 00                	add    %al,(%eax)
	...

c001d024 <font>:
c001d024:	00 00                	add    %al,(%eax)
	...

c001d028 <videoMode>:
c001d028:	00 00                	add    %al,(%eax)
	...

c001d02c <timer>:
	...

c001d040 <prot>:
	...

c001d060 <bitmap>:
	...

c021d060 <modules>:
	...

Disassembly of section .comment:

00000000 <.comment>:
   0:	47                   	inc    %edi
   1:	43                   	inc    %ebx
   2:	43                   	inc    %ebx
   3:	3a 20                	cmp    (%eax),%ah
   5:	28 55 62             	sub    %dl,0x62(%ebp)
   8:	75 6e                	jne    78 <__boot-0xbfffff88>
   a:	74 75                	je     81 <__boot-0xbfffff7f>
   c:	20 34 2e             	and    %dh,(%esi,%ebp,1)
   f:	34 2e                	xor    $0x2e,%al
  11:	33 2d 34 75 62 75    	xor    0x75627534,%ebp
  17:	6e                   	outsb  %ds:(%esi),(%dx)
  18:	74 75                	je     8f <__boot-0xbfffff71>
  1a:	35 29 20 34 2e       	xor    $0x2e342029,%eax
  1f:	34 2e                	xor    $0x2e,%al
  21:	33 00                	xor    (%eax),%eax
